
output.o:     file format elf32-littleriscv


Disassembly of section .text:

00010074 <register_fini>:
   10074:	ffff0797          	auipc	a5,0xffff0
   10078:	f8c78793          	addi	a5,a5,-116 # 0 <register_fini-0x10074>
   1007c:	00078863          	beqz	a5,1008c <register_fini+0x18>
   10080:	00000517          	auipc	a0,0x0
   10084:	4e450513          	addi	a0,a0,1252 # 10564 <__libc_fini_array>
   10088:	4940006f          	j	1051c <atexit>
   1008c:	00008067          	ret

00010090 <_start>:
   10090:	00022197          	auipc	gp,0x22
   10094:	83018193          	addi	gp,gp,-2000 # 318c0 <__global_pointer$>
   10098:	23618513          	addi	a0,gp,566 # 31af6 <_edata>
   1009c:	29418613          	addi	a2,gp,660 # 31b54 <__BSS_END__>
   100a0:	40a60633          	sub	a2,a2,a0
   100a4:	00000593          	li	a1,0
   100a8:	5b0000ef          	jal	ra,10658 <memset>
   100ac:	00000517          	auipc	a0,0x0
   100b0:	4b850513          	addi	a0,a0,1208 # 10564 <__libc_fini_array>
   100b4:	468000ef          	jal	ra,1051c <atexit>
   100b8:	50c000ef          	jal	ra,105c4 <__libc_init_array>
   100bc:	00012503          	lw	a0,0(sp)
   100c0:	00410593          	addi	a1,sp,4
   100c4:	00000613          	li	a2,0
   100c8:	1dc000ef          	jal	ra,102a4 <main>
   100cc:	4640006f          	j	10530 <exit>

000100d0 <__do_global_dtors_aux>:
   100d0:	24c1c783          	lbu	a5,588(gp) # 31b0c <completed.5434>
   100d4:	04079463          	bnez	a5,1011c <__do_global_dtors_aux+0x4c>
   100d8:	ffff0797          	auipc	a5,0xffff0
   100dc:	f2878793          	addi	a5,a5,-216 # 0 <register_fini-0x10074>
   100e0:	02078863          	beqz	a5,10110 <__do_global_dtors_aux+0x40>
   100e4:	ff010113          	addi	sp,sp,-16
   100e8:	00021517          	auipc	a0,0x21
   100ec:	f1850513          	addi	a0,a0,-232 # 31000 <__EH_FRAME_BEGIN__>
   100f0:	00112623          	sw	ra,12(sp)
   100f4:	00000097          	auipc	ra,0x0
   100f8:	000000e7          	jalr	zero # 0 <register_fini-0x10074>
   100fc:	00c12083          	lw	ra,12(sp)
   10100:	00100793          	li	a5,1
   10104:	24f18623          	sb	a5,588(gp) # 31b0c <completed.5434>
   10108:	01010113          	addi	sp,sp,16
   1010c:	00008067          	ret
   10110:	00100793          	li	a5,1
   10114:	24f18623          	sb	a5,588(gp) # 31b0c <completed.5434>
   10118:	00008067          	ret
   1011c:	00008067          	ret

00010120 <frame_dummy>:
   10120:	ffff0797          	auipc	a5,0xffff0
   10124:	ee078793          	addi	a5,a5,-288 # 0 <register_fini-0x10074>
   10128:	00078c63          	beqz	a5,10140 <frame_dummy+0x20>
   1012c:	25018593          	addi	a1,gp,592 # 31b10 <object.5439>
   10130:	00021517          	auipc	a0,0x21
   10134:	ed050513          	addi	a0,a0,-304 # 31000 <__EH_FRAME_BEGIN__>
   10138:	00000317          	auipc	t1,0x0
   1013c:	00000067          	jr	zero # 0 <register_fini-0x10074>
   10140:	00008067          	ret

00010144 <add>:
   10144:	fe010113          	addi	sp,sp,-32
   10148:	00812e23          	sw	s0,28(sp)
   1014c:	02010413          	addi	s0,sp,32
   10150:	fea42623          	sw	a0,-20(s0)
   10154:	feb42423          	sw	a1,-24(s0)
   10158:	fec42703          	lw	a4,-20(s0)
   1015c:	fe842783          	lw	a5,-24(s0)
   10160:	00f707b3          	add	a5,a4,a5
   10164:	00078513          	mv	a0,a5
   10168:	01c12403          	lw	s0,28(sp)
   1016c:	02010113          	addi	sp,sp,32
   10170:	00008067          	ret

00010174 <subtract>:
   10174:	fe010113          	addi	sp,sp,-32
   10178:	00812e23          	sw	s0,28(sp)
   1017c:	02010413          	addi	s0,sp,32
   10180:	fea42623          	sw	a0,-20(s0)
   10184:	feb42423          	sw	a1,-24(s0)
   10188:	fec42703          	lw	a4,-20(s0)
   1018c:	fe842783          	lw	a5,-24(s0)
   10190:	40f707b3          	sub	a5,a4,a5
   10194:	00078513          	mv	a0,a5
   10198:	01c12403          	lw	s0,28(sp)
   1019c:	02010113          	addi	sp,sp,32
   101a0:	00008067          	ret

000101a4 <multiply>:
   101a4:	fe010113          	addi	sp,sp,-32
   101a8:	00112e23          	sw	ra,28(sp)
   101ac:	00812c23          	sw	s0,24(sp)
   101b0:	02010413          	addi	s0,sp,32
   101b4:	fea42623          	sw	a0,-20(s0)
   101b8:	feb42423          	sw	a1,-24(s0)
   101bc:	fe842583          	lw	a1,-24(s0)
   101c0:	fec42503          	lw	a0,-20(s0)
   101c4:	280000ef          	jal	ra,10444 <__mulsi3>
   101c8:	00050793          	mv	a5,a0
   101cc:	00078513          	mv	a0,a5
   101d0:	01c12083          	lw	ra,28(sp)
   101d4:	01812403          	lw	s0,24(sp)
   101d8:	02010113          	addi	sp,sp,32
   101dc:	00008067          	ret

000101e0 <divide>:
   101e0:	fe010113          	addi	sp,sp,-32
   101e4:	00112e23          	sw	ra,28(sp)
   101e8:	00812c23          	sw	s0,24(sp)
   101ec:	02010413          	addi	s0,sp,32
   101f0:	fea42623          	sw	a0,-20(s0)
   101f4:	feb42423          	sw	a1,-24(s0)
   101f8:	fe842583          	lw	a1,-24(s0)
   101fc:	fec42503          	lw	a0,-20(s0)
   10200:	268000ef          	jal	ra,10468 <__divsi3>
   10204:	00050793          	mv	a5,a0
   10208:	00078513          	mv	a0,a5
   1020c:	01c12083          	lw	ra,28(sp)
   10210:	01812403          	lw	s0,24(sp)
   10214:	02010113          	addi	sp,sp,32
   10218:	00008067          	ret

0001021c <bitwiseAND>:
   1021c:	fe010113          	addi	sp,sp,-32
   10220:	00812e23          	sw	s0,28(sp)
   10224:	02010413          	addi	s0,sp,32
   10228:	fea42623          	sw	a0,-20(s0)
   1022c:	feb42423          	sw	a1,-24(s0)
   10230:	fec42703          	lw	a4,-20(s0)
   10234:	fe842783          	lw	a5,-24(s0)
   10238:	00f777b3          	and	a5,a4,a5
   1023c:	00078513          	mv	a0,a5
   10240:	01c12403          	lw	s0,28(sp)
   10244:	02010113          	addi	sp,sp,32
   10248:	00008067          	ret

0001024c <bitwiseOR>:
   1024c:	fe010113          	addi	sp,sp,-32
   10250:	00812e23          	sw	s0,28(sp)
   10254:	02010413          	addi	s0,sp,32
   10258:	fea42623          	sw	a0,-20(s0)
   1025c:	feb42423          	sw	a1,-24(s0)
   10260:	fec42703          	lw	a4,-20(s0)
   10264:	fe842783          	lw	a5,-24(s0)
   10268:	00f767b3          	or	a5,a4,a5
   1026c:	00078513          	mv	a0,a5
   10270:	01c12403          	lw	s0,28(sp)
   10274:	02010113          	addi	sp,sp,32
   10278:	00008067          	ret

0001027c <bitwiseNOT>:
   1027c:	fe010113          	addi	sp,sp,-32
   10280:	00812e23          	sw	s0,28(sp)
   10284:	02010413          	addi	s0,sp,32
   10288:	fea42623          	sw	a0,-20(s0)
   1028c:	fec42783          	lw	a5,-20(s0)
   10290:	fff7c793          	not	a5,a5
   10294:	00078513          	mv	a0,a5
   10298:	01c12403          	lw	s0,28(sp)
   1029c:	02010113          	addi	sp,sp,32
   102a0:	00008067          	ret

000102a4 <main>:
   102a4:	fe010113          	addi	sp,sp,-32
   102a8:	00112e23          	sw	ra,28(sp)
   102ac:	00812c23          	sw	s0,24(sp)
   102b0:	02010413          	addi	s0,sp,32
   102b4:	fe042623          	sw	zero,-20(s0)
   102b8:	0002f7b7          	lui	a5,0x2f
   102bc:	11878513          	addi	a0,a5,280 # 2f118 <__clzsi2+0x50>
   102c0:	4b8000ef          	jal	ra,10778 <printf>
   102c4:	fe440713          	addi	a4,s0,-28
   102c8:	fe840793          	addi	a5,s0,-24
   102cc:	00070613          	mv	a2,a4
   102d0:	00078593          	mv	a1,a5
   102d4:	0002f7b7          	lui	a5,0x2f
   102d8:	12c78513          	addi	a0,a5,300 # 2f12c <__clzsi2+0x64>
   102dc:	4f0000ef          	jal	ra,107cc <scanf>
   102e0:	0002f7b7          	lui	a5,0x2f
   102e4:	13478513          	addi	a0,a5,308 # 2f134 <__clzsi2+0x6c>
   102e8:	490000ef          	jal	ra,10778 <printf>
   102ec:	fe340793          	addi	a5,s0,-29
   102f0:	00078593          	mv	a1,a5
   102f4:	0002f7b7          	lui	a5,0x2f
   102f8:	14c78513          	addi	a0,a5,332 # 2f14c <__clzsi2+0x84>
   102fc:	4d0000ef          	jal	ra,107cc <scanf>
   10300:	fe344783          	lbu	a5,-29(s0)
   10304:	02d00713          	li	a4,45
   10308:	06e78063          	beq	a5,a4,10368 <main+0xc4>
   1030c:	02d00713          	li	a4,45
   10310:	02f74063          	blt	a4,a5,10330 <main+0x8c>
   10314:	02a00713          	li	a4,42
   10318:	06e78663          	beq	a5,a4,10384 <main+0xe0>
   1031c:	02b00713          	li	a4,43
   10320:	02e78663          	beq	a5,a4,1034c <main+0xa8>
   10324:	02600713          	li	a4,38
   10328:	08e78a63          	beq	a5,a4,103bc <main+0x118>
   1032c:	0dc0006f          	j	10408 <main+0x164>
   10330:	05e00713          	li	a4,94
   10334:	0ce78063          	beq	a5,a4,103f4 <main+0x150>
   10338:	07c00713          	li	a4,124
   1033c:	08e78e63          	beq	a5,a4,103d8 <main+0x134>
   10340:	02f00713          	li	a4,47
   10344:	04e78e63          	beq	a5,a4,103a0 <main+0xfc>
   10348:	0c00006f          	j	10408 <main+0x164>
   1034c:	fe842783          	lw	a5,-24(s0)
   10350:	fe442703          	lw	a4,-28(s0)
   10354:	00070593          	mv	a1,a4
   10358:	00078513          	mv	a0,a5
   1035c:	de9ff0ef          	jal	ra,10144 <add>
   10360:	fea42623          	sw	a0,-20(s0)
   10364:	0b80006f          	j	1041c <main+0x178>
   10368:	fe842783          	lw	a5,-24(s0)
   1036c:	fe442703          	lw	a4,-28(s0)
   10370:	00070593          	mv	a1,a4
   10374:	00078513          	mv	a0,a5
   10378:	dfdff0ef          	jal	ra,10174 <subtract>
   1037c:	fea42623          	sw	a0,-20(s0)
   10380:	09c0006f          	j	1041c <main+0x178>
   10384:	fe842783          	lw	a5,-24(s0)
   10388:	fe442703          	lw	a4,-28(s0)
   1038c:	00070593          	mv	a1,a4
   10390:	00078513          	mv	a0,a5
   10394:	e11ff0ef          	jal	ra,101a4 <multiply>
   10398:	fea42623          	sw	a0,-20(s0)
   1039c:	0800006f          	j	1041c <main+0x178>
   103a0:	fe842783          	lw	a5,-24(s0)
   103a4:	fe442703          	lw	a4,-28(s0)
   103a8:	00070593          	mv	a1,a4
   103ac:	00078513          	mv	a0,a5
   103b0:	e31ff0ef          	jal	ra,101e0 <divide>
   103b4:	fea42623          	sw	a0,-20(s0)
   103b8:	0640006f          	j	1041c <main+0x178>
   103bc:	fe842783          	lw	a5,-24(s0)
   103c0:	fe442703          	lw	a4,-28(s0)
   103c4:	00070593          	mv	a1,a4
   103c8:	00078513          	mv	a0,a5
   103cc:	e51ff0ef          	jal	ra,1021c <bitwiseAND>
   103d0:	fea42623          	sw	a0,-20(s0)
   103d4:	0480006f          	j	1041c <main+0x178>
   103d8:	fe842783          	lw	a5,-24(s0)
   103dc:	fe442703          	lw	a4,-28(s0)
   103e0:	00070593          	mv	a1,a4
   103e4:	00078513          	mv	a0,a5
   103e8:	e65ff0ef          	jal	ra,1024c <bitwiseOR>
   103ec:	fea42623          	sw	a0,-20(s0)
   103f0:	02c0006f          	j	1041c <main+0x178>
   103f4:	fe842783          	lw	a5,-24(s0)
   103f8:	00078513          	mv	a0,a5
   103fc:	e81ff0ef          	jal	ra,1027c <bitwiseNOT>
   10400:	fea42623          	sw	a0,-20(s0)
   10404:	0180006f          	j	1041c <main+0x178>
   10408:	0002f7b7          	lui	a5,0x2f
   1040c:	15078513          	addi	a0,a5,336 # 2f150 <__clzsi2+0x88>
   10410:	368000ef          	jal	ra,10778 <printf>
   10414:	00100793          	li	a5,1
   10418:	0180006f          	j	10430 <main+0x18c>
   1041c:	fec42583          	lw	a1,-20(s0)
   10420:	0002f7b7          	lui	a5,0x2f
   10424:	16478513          	addi	a0,a5,356 # 2f164 <__clzsi2+0x9c>
   10428:	350000ef          	jal	ra,10778 <printf>
   1042c:	00000793          	li	a5,0
   10430:	00078513          	mv	a0,a5
   10434:	01c12083          	lw	ra,28(sp)
   10438:	01812403          	lw	s0,24(sp)
   1043c:	02010113          	addi	sp,sp,32
   10440:	00008067          	ret

00010444 <__mulsi3>:
   10444:	00050613          	mv	a2,a0
   10448:	00000513          	li	a0,0
   1044c:	0015f693          	andi	a3,a1,1
   10450:	00068463          	beqz	a3,10458 <__mulsi3+0x14>
   10454:	00c50533          	add	a0,a0,a2
   10458:	0015d593          	srli	a1,a1,0x1
   1045c:	00161613          	slli	a2,a2,0x1
   10460:	fe0596e3          	bnez	a1,1044c <__mulsi3+0x8>
   10464:	00008067          	ret

00010468 <__divsi3>:
   10468:	06054063          	bltz	a0,104c8 <__umodsi3+0x10>
   1046c:	0605c663          	bltz	a1,104d8 <__umodsi3+0x20>

00010470 <__udivsi3>:
   10470:	00058613          	mv	a2,a1
   10474:	00050593          	mv	a1,a0
   10478:	fff00513          	li	a0,-1
   1047c:	02060c63          	beqz	a2,104b4 <__udivsi3+0x44>
   10480:	00100693          	li	a3,1
   10484:	00b67a63          	bgeu	a2,a1,10498 <__udivsi3+0x28>
   10488:	00c05863          	blez	a2,10498 <__udivsi3+0x28>
   1048c:	00161613          	slli	a2,a2,0x1
   10490:	00169693          	slli	a3,a3,0x1
   10494:	feb66ae3          	bltu	a2,a1,10488 <__udivsi3+0x18>
   10498:	00000513          	li	a0,0
   1049c:	00c5e663          	bltu	a1,a2,104a8 <__udivsi3+0x38>
   104a0:	40c585b3          	sub	a1,a1,a2
   104a4:	00d56533          	or	a0,a0,a3
   104a8:	0016d693          	srli	a3,a3,0x1
   104ac:	00165613          	srli	a2,a2,0x1
   104b0:	fe0696e3          	bnez	a3,1049c <__udivsi3+0x2c>
   104b4:	00008067          	ret

000104b8 <__umodsi3>:
   104b8:	00008293          	mv	t0,ra
   104bc:	fb5ff0ef          	jal	ra,10470 <__udivsi3>
   104c0:	00058513          	mv	a0,a1
   104c4:	00028067          	jr	t0
   104c8:	40a00533          	neg	a0,a0
   104cc:	0005d863          	bgez	a1,104dc <__umodsi3+0x24>
   104d0:	40b005b3          	neg	a1,a1
   104d4:	f9dff06f          	j	10470 <__udivsi3>
   104d8:	40b005b3          	neg	a1,a1
   104dc:	00008293          	mv	t0,ra
   104e0:	f91ff0ef          	jal	ra,10470 <__udivsi3>
   104e4:	40a00533          	neg	a0,a0
   104e8:	00028067          	jr	t0

000104ec <__modsi3>:
   104ec:	00008293          	mv	t0,ra
   104f0:	0005ca63          	bltz	a1,10504 <__modsi3+0x18>
   104f4:	00054c63          	bltz	a0,1050c <__modsi3+0x20>
   104f8:	f79ff0ef          	jal	ra,10470 <__udivsi3>
   104fc:	00058513          	mv	a0,a1
   10500:	00028067          	jr	t0
   10504:	40b005b3          	neg	a1,a1
   10508:	fe0558e3          	bgez	a0,104f8 <__modsi3+0xc>
   1050c:	40a00533          	neg	a0,a0
   10510:	f61ff0ef          	jal	ra,10470 <__udivsi3>
   10514:	40b00533          	neg	a0,a1
   10518:	00028067          	jr	t0

0001051c <atexit>:
   1051c:	00050593          	mv	a1,a0
   10520:	00000693          	li	a3,0
   10524:	00000613          	li	a2,0
   10528:	00000513          	li	a0,0
   1052c:	3bd0506f          	j	160e8 <__register_exitproc>

00010530 <exit>:
   10530:	ff010113          	addi	sp,sp,-16
   10534:	00000593          	li	a1,0
   10538:	00812423          	sw	s0,8(sp)
   1053c:	00112623          	sw	ra,12(sp)
   10540:	00050413          	mv	s0,a0
   10544:	441050ef          	jal	ra,16184 <__call_exitprocs>
   10548:	22018793          	addi	a5,gp,544 # 31ae0 <_global_impure_ptr>
   1054c:	0007a503          	lw	a0,0(a5)
   10550:	03c52783          	lw	a5,60(a0)
   10554:	00078463          	beqz	a5,1055c <exit+0x2c>
   10558:	000780e7          	jalr	a5
   1055c:	00040513          	mv	a0,s0
   10560:	020180ef          	jal	ra,28580 <_exit>

00010564 <__libc_fini_array>:
   10564:	ff010113          	addi	sp,sp,-16
   10568:	00812423          	sw	s0,8(sp)
   1056c:	00021797          	auipc	a5,0x21
   10570:	b5078793          	addi	a5,a5,-1200 # 310bc <__init_array_end>
   10574:	00021417          	auipc	s0,0x21
   10578:	b4c40413          	addi	s0,s0,-1204 # 310c0 <__fini_array_end>
   1057c:	40f40433          	sub	s0,s0,a5
   10580:	00112623          	sw	ra,12(sp)
   10584:	00912223          	sw	s1,4(sp)
   10588:	40245413          	srai	s0,s0,0x2
   1058c:	02040263          	beqz	s0,105b0 <__libc_fini_array+0x4c>
   10590:	00241493          	slli	s1,s0,0x2
   10594:	ffc48493          	addi	s1,s1,-4
   10598:	00f484b3          	add	s1,s1,a5
   1059c:	0004a783          	lw	a5,0(s1)
   105a0:	fff40413          	addi	s0,s0,-1
   105a4:	ffc48493          	addi	s1,s1,-4
   105a8:	000780e7          	jalr	a5
   105ac:	fe0418e3          	bnez	s0,1059c <__libc_fini_array+0x38>
   105b0:	00c12083          	lw	ra,12(sp)
   105b4:	00812403          	lw	s0,8(sp)
   105b8:	00412483          	lw	s1,4(sp)
   105bc:	01010113          	addi	sp,sp,16
   105c0:	00008067          	ret

000105c4 <__libc_init_array>:
   105c4:	ff010113          	addi	sp,sp,-16
   105c8:	00812423          	sw	s0,8(sp)
   105cc:	01212023          	sw	s2,0(sp)
   105d0:	00021417          	auipc	s0,0x21
   105d4:	ae440413          	addi	s0,s0,-1308 # 310b4 <__init_array_start>
   105d8:	00021917          	auipc	s2,0x21
   105dc:	adc90913          	addi	s2,s2,-1316 # 310b4 <__init_array_start>
   105e0:	40890933          	sub	s2,s2,s0
   105e4:	00112623          	sw	ra,12(sp)
   105e8:	00912223          	sw	s1,4(sp)
   105ec:	40295913          	srai	s2,s2,0x2
   105f0:	00090e63          	beqz	s2,1060c <__libc_init_array+0x48>
   105f4:	00000493          	li	s1,0
   105f8:	00042783          	lw	a5,0(s0)
   105fc:	00148493          	addi	s1,s1,1
   10600:	00440413          	addi	s0,s0,4
   10604:	000780e7          	jalr	a5
   10608:	fe9918e3          	bne	s2,s1,105f8 <__libc_init_array+0x34>
   1060c:	00021417          	auipc	s0,0x21
   10610:	aa840413          	addi	s0,s0,-1368 # 310b4 <__init_array_start>
   10614:	00021917          	auipc	s2,0x21
   10618:	aa890913          	addi	s2,s2,-1368 # 310bc <__init_array_end>
   1061c:	40890933          	sub	s2,s2,s0
   10620:	40295913          	srai	s2,s2,0x2
   10624:	00090e63          	beqz	s2,10640 <__libc_init_array+0x7c>
   10628:	00000493          	li	s1,0
   1062c:	00042783          	lw	a5,0(s0)
   10630:	00148493          	addi	s1,s1,1
   10634:	00440413          	addi	s0,s0,4
   10638:	000780e7          	jalr	a5
   1063c:	fe9918e3          	bne	s2,s1,1062c <__libc_init_array+0x68>
   10640:	00c12083          	lw	ra,12(sp)
   10644:	00812403          	lw	s0,8(sp)
   10648:	00412483          	lw	s1,4(sp)
   1064c:	00012903          	lw	s2,0(sp)
   10650:	01010113          	addi	sp,sp,16
   10654:	00008067          	ret

00010658 <memset>:
   10658:	00f00313          	li	t1,15
   1065c:	00050713          	mv	a4,a0
   10660:	02c37e63          	bgeu	t1,a2,1069c <memset+0x44>
   10664:	00f77793          	andi	a5,a4,15
   10668:	0a079063          	bnez	a5,10708 <memset+0xb0>
   1066c:	08059263          	bnez	a1,106f0 <memset+0x98>
   10670:	ff067693          	andi	a3,a2,-16
   10674:	00f67613          	andi	a2,a2,15
   10678:	00e686b3          	add	a3,a3,a4
   1067c:	00b72023          	sw	a1,0(a4)
   10680:	00b72223          	sw	a1,4(a4)
   10684:	00b72423          	sw	a1,8(a4)
   10688:	00b72623          	sw	a1,12(a4)
   1068c:	01070713          	addi	a4,a4,16
   10690:	fed766e3          	bltu	a4,a3,1067c <memset+0x24>
   10694:	00061463          	bnez	a2,1069c <memset+0x44>
   10698:	00008067          	ret
   1069c:	40c306b3          	sub	a3,t1,a2
   106a0:	00269693          	slli	a3,a3,0x2
   106a4:	00000297          	auipc	t0,0x0
   106a8:	005686b3          	add	a3,a3,t0
   106ac:	00c68067          	jr	12(a3)
   106b0:	00b70723          	sb	a1,14(a4)
   106b4:	00b706a3          	sb	a1,13(a4)
   106b8:	00b70623          	sb	a1,12(a4)
   106bc:	00b705a3          	sb	a1,11(a4)
   106c0:	00b70523          	sb	a1,10(a4)
   106c4:	00b704a3          	sb	a1,9(a4)
   106c8:	00b70423          	sb	a1,8(a4)
   106cc:	00b703a3          	sb	a1,7(a4)
   106d0:	00b70323          	sb	a1,6(a4)
   106d4:	00b702a3          	sb	a1,5(a4)
   106d8:	00b70223          	sb	a1,4(a4)
   106dc:	00b701a3          	sb	a1,3(a4)
   106e0:	00b70123          	sb	a1,2(a4)
   106e4:	00b700a3          	sb	a1,1(a4)
   106e8:	00b70023          	sb	a1,0(a4)
   106ec:	00008067          	ret
   106f0:	0ff5f593          	andi	a1,a1,255
   106f4:	00859693          	slli	a3,a1,0x8
   106f8:	00d5e5b3          	or	a1,a1,a3
   106fc:	01059693          	slli	a3,a1,0x10
   10700:	00d5e5b3          	or	a1,a1,a3
   10704:	f6dff06f          	j	10670 <memset+0x18>
   10708:	00279693          	slli	a3,a5,0x2
   1070c:	00000297          	auipc	t0,0x0
   10710:	005686b3          	add	a3,a3,t0
   10714:	00008293          	mv	t0,ra
   10718:	fa0680e7          	jalr	-96(a3)
   1071c:	00028093          	mv	ra,t0
   10720:	ff078793          	addi	a5,a5,-16
   10724:	40f70733          	sub	a4,a4,a5
   10728:	00f60633          	add	a2,a2,a5
   1072c:	f6c378e3          	bgeu	t1,a2,1069c <memset+0x44>
   10730:	f3dff06f          	j	1066c <memset+0x14>

00010734 <_printf_r>:
   10734:	fc010113          	addi	sp,sp,-64
   10738:	02c12423          	sw	a2,40(sp)
   1073c:	02d12623          	sw	a3,44(sp)
   10740:	02f12a23          	sw	a5,52(sp)
   10744:	02e12823          	sw	a4,48(sp)
   10748:	03012c23          	sw	a6,56(sp)
   1074c:	03112e23          	sw	a7,60(sp)
   10750:	00058613          	mv	a2,a1
   10754:	00852583          	lw	a1,8(a0)
   10758:	02810793          	addi	a5,sp,40
   1075c:	00078693          	mv	a3,a5
   10760:	00112e23          	sw	ra,28(sp)
   10764:	00f12623          	sw	a5,12(sp)
   10768:	0fc000ef          	jal	ra,10864 <_vfprintf_r>
   1076c:	01c12083          	lw	ra,28(sp)
   10770:	04010113          	addi	sp,sp,64
   10774:	00008067          	ret

00010778 <printf>:
   10778:	22818313          	addi	t1,gp,552 # 31ae8 <_impure_ptr>
   1077c:	00032303          	lw	t1,0(t1) # 10138 <frame_dummy+0x18>
   10780:	fc010113          	addi	sp,sp,-64
   10784:	02c12423          	sw	a2,40(sp)
   10788:	02d12623          	sw	a3,44(sp)
   1078c:	02f12a23          	sw	a5,52(sp)
   10790:	02b12223          	sw	a1,36(sp)
   10794:	02e12823          	sw	a4,48(sp)
   10798:	03012c23          	sw	a6,56(sp)
   1079c:	03112e23          	sw	a7,60(sp)
   107a0:	00832583          	lw	a1,8(t1)
   107a4:	02410793          	addi	a5,sp,36
   107a8:	00050613          	mv	a2,a0
   107ac:	00078693          	mv	a3,a5
   107b0:	00030513          	mv	a0,t1
   107b4:	00112e23          	sw	ra,28(sp)
   107b8:	00f12623          	sw	a5,12(sp)
   107bc:	0a8000ef          	jal	ra,10864 <_vfprintf_r>
   107c0:	01c12083          	lw	ra,28(sp)
   107c4:	04010113          	addi	sp,sp,64
   107c8:	00008067          	ret

000107cc <scanf>:
   107cc:	22818313          	addi	t1,gp,552 # 31ae8 <_impure_ptr>
   107d0:	00032303          	lw	t1,0(t1)
   107d4:	fc010113          	addi	sp,sp,-64
   107d8:	02c12423          	sw	a2,40(sp)
   107dc:	02d12623          	sw	a3,44(sp)
   107e0:	02f12a23          	sw	a5,52(sp)
   107e4:	02b12223          	sw	a1,36(sp)
   107e8:	02e12823          	sw	a4,48(sp)
   107ec:	03012c23          	sw	a6,56(sp)
   107f0:	03112e23          	sw	a7,60(sp)
   107f4:	00432583          	lw	a1,4(t1)
   107f8:	02410793          	addi	a5,sp,36
   107fc:	00050613          	mv	a2,a0
   10800:	00078693          	mv	a3,a5
   10804:	00030513          	mv	a0,t1
   10808:	00112e23          	sw	ra,28(sp)
   1080c:	00f12623          	sw	a5,12(sp)
   10810:	710050ef          	jal	ra,15f20 <_vfscanf_r>
   10814:	01c12083          	lw	ra,28(sp)
   10818:	04010113          	addi	sp,sp,64
   1081c:	00008067          	ret

00010820 <_scanf_r>:
   10820:	fc010113          	addi	sp,sp,-64
   10824:	02c12423          	sw	a2,40(sp)
   10828:	02d12623          	sw	a3,44(sp)
   1082c:	02f12a23          	sw	a5,52(sp)
   10830:	02e12823          	sw	a4,48(sp)
   10834:	03012c23          	sw	a6,56(sp)
   10838:	03112e23          	sw	a7,60(sp)
   1083c:	00058613          	mv	a2,a1
   10840:	00452583          	lw	a1,4(a0)
   10844:	02810793          	addi	a5,sp,40
   10848:	00078693          	mv	a3,a5
   1084c:	00112e23          	sw	ra,28(sp)
   10850:	00f12623          	sw	a5,12(sp)
   10854:	6cc050ef          	jal	ra,15f20 <_vfscanf_r>
   10858:	01c12083          	lw	ra,28(sp)
   1085c:	04010113          	addi	sp,sp,64
   10860:	00008067          	ret

00010864 <_vfprintf_r>:
   10864:	e1010113          	addi	sp,sp,-496
   10868:	1e112623          	sw	ra,492(sp)
   1086c:	1e812423          	sw	s0,488(sp)
   10870:	1d912223          	sw	s9,452(sp)
   10874:	00b12223          	sw	a1,4(sp)
   10878:	00060c93          	mv	s9,a2
   1087c:	00d12623          	sw	a3,12(sp)
   10880:	1e912223          	sw	s1,484(sp)
   10884:	1f212023          	sw	s2,480(sp)
   10888:	1d312e23          	sw	s3,476(sp)
   1088c:	1d412c23          	sw	s4,472(sp)
   10890:	1d512a23          	sw	s5,468(sp)
   10894:	1d612823          	sw	s6,464(sp)
   10898:	1d712623          	sw	s7,460(sp)
   1089c:	1d812423          	sw	s8,456(sp)
   108a0:	1da12023          	sw	s10,448(sp)
   108a4:	1bb12e23          	sw	s11,444(sp)
   108a8:	00050413          	mv	s0,a0
   108ac:	00a12e23          	sw	a0,28(sp)
   108b0:	40c090ef          	jal	ra,19cbc <_localeconv_r>
   108b4:	00052783          	lw	a5,0(a0)
   108b8:	00078513          	mv	a0,a5
   108bc:	02f12823          	sw	a5,48(sp)
   108c0:	1080c0ef          	jal	ra,1c9c8 <strlen>
   108c4:	02a12423          	sw	a0,40(sp)
   108c8:	0e012823          	sw	zero,240(sp)
   108cc:	0e012a23          	sw	zero,244(sp)
   108d0:	0e012c23          	sw	zero,248(sp)
   108d4:	0e012e23          	sw	zero,252(sp)
   108d8:	00040663          	beqz	s0,108e4 <_vfprintf_r+0x80>
   108dc:	03842783          	lw	a5,56(s0)
   108e0:	56078ae3          	beqz	a5,11654 <_vfprintf_r+0xdf0>
   108e4:	00412603          	lw	a2,4(sp)
   108e8:	00c61703          	lh	a4,12(a2)
   108ec:	01071793          	slli	a5,a4,0x10
   108f0:	0107d793          	srli	a5,a5,0x10
   108f4:	01279693          	slli	a3,a5,0x12
   108f8:	0206c663          	bltz	a3,10924 <_vfprintf_r+0xc0>
   108fc:	06462683          	lw	a3,100(a2)
   10900:	000027b7          	lui	a5,0x2
   10904:	00f767b3          	or	a5,a4,a5
   10908:	ffffe737          	lui	a4,0xffffe
   1090c:	fff70713          	addi	a4,a4,-1 # ffffdfff <__BSS_END__+0xfffcc4ab>
   10910:	00e6f733          	and	a4,a3,a4
   10914:	00f61623          	sh	a5,12(a2)
   10918:	01079793          	slli	a5,a5,0x10
   1091c:	06e62223          	sw	a4,100(a2)
   10920:	0107d793          	srli	a5,a5,0x10
   10924:	0087f713          	andi	a4,a5,8
   10928:	16070463          	beqz	a4,10a90 <_vfprintf_r+0x22c>
   1092c:	00412703          	lw	a4,4(sp)
   10930:	01072703          	lw	a4,16(a4)
   10934:	14070e63          	beqz	a4,10a90 <_vfprintf_r+0x22c>
   10938:	01a7f793          	andi	a5,a5,26
   1093c:	00a00713          	li	a4,10
   10940:	16e78c63          	beq	a5,a4,10ab8 <_vfprintf_r+0x254>
   10944:	10c10793          	addi	a5,sp,268
   10948:	000c8d13          	mv	s10,s9
   1094c:	0ef12223          	sw	a5,228(sp)
   10950:	00078d93          	mv	s11,a5
   10954:	000d4783          	lbu	a5,0(s10)
   10958:	0e012623          	sw	zero,236(sp)
   1095c:	0e012423          	sw	zero,232(sp)
   10960:	00012c23          	sw	zero,24(sp)
   10964:	02012623          	sw	zero,44(sp)
   10968:	02012c23          	sw	zero,56(sp)
   1096c:	02012e23          	sw	zero,60(sp)
   10970:	04012023          	sw	zero,64(sp)
   10974:	04012223          	sw	zero,68(sp)
   10978:	00012423          	sw	zero,8(sp)
   1097c:	01000c13          	li	s8,16
   10980:	01c12a83          	lw	s5,28(sp)
   10984:	3e078463          	beqz	a5,10d6c <_vfprintf_r+0x508>
   10988:	02500713          	li	a4,37
   1098c:	00e79463          	bne	a5,a4,10994 <_vfprintf_r+0x130>
   10990:	7340106f          	j	120c4 <_vfprintf_r+0x1860>
   10994:	000d0413          	mv	s0,s10
   10998:	00c0006f          	j	109a4 <_vfprintf_r+0x140>
   1099c:	14e78263          	beq	a5,a4,10ae0 <_vfprintf_r+0x27c>
   109a0:	00048413          	mv	s0,s1
   109a4:	00144783          	lbu	a5,1(s0)
   109a8:	00140493          	addi	s1,s0,1
   109ac:	fe0798e3          	bnez	a5,1099c <_vfprintf_r+0x138>
   109b0:	41a48933          	sub	s2,s1,s10
   109b4:	3a090c63          	beqz	s2,10d6c <_vfprintf_r+0x508>
   109b8:	0ec12703          	lw	a4,236(sp)
   109bc:	0e812783          	lw	a5,232(sp)
   109c0:	01ada023          	sw	s10,0(s11)
   109c4:	01270733          	add	a4,a4,s2
   109c8:	00178793          	addi	a5,a5,1 # 2001 <register_fini-0xe073>
   109cc:	012da223          	sw	s2,4(s11)
   109d0:	0ee12623          	sw	a4,236(sp)
   109d4:	0ef12423          	sw	a5,232(sp)
   109d8:	00700713          	li	a4,7
   109dc:	008d8d93          	addi	s11,s11,8
   109e0:	10f74663          	blt	a4,a5,10aec <_vfprintf_r+0x288>
   109e4:	00812703          	lw	a4,8(sp)
   109e8:	00144783          	lbu	a5,1(s0)
   109ec:	01270733          	add	a4,a4,s2
   109f0:	00e12423          	sw	a4,8(sp)
   109f4:	36078c63          	beqz	a5,10d6c <_vfprintf_r+0x508>
   109f8:	00148913          	addi	s2,s1,1
   109fc:	0014c403          	lbu	s0,1(s1)
   10a00:	0c0103a3          	sb	zero,199(sp)
   10a04:	fff00b13          	li	s6,-1
   10a08:	00000493          	li	s1,0
   10a0c:	00000993          	li	s3,0
   10a10:	00900a13          	li	s4,9
   10a14:	02a00b93          	li	s7,42
   10a18:	00190913          	addi	s2,s2,1
   10a1c:	05a00713          	li	a4,90
   10a20:	fe040793          	addi	a5,s0,-32
   10a24:	22f76c63          	bltu	a4,a5,10c5c <_vfprintf_r+0x3f8>
   10a28:	0001e697          	auipc	a3,0x1e
   10a2c:	74868693          	addi	a3,a3,1864 # 2f170 <__clzsi2+0xa8>
   10a30:	00279793          	slli	a5,a5,0x2
   10a34:	00d787b3          	add	a5,a5,a3
   10a38:	0007a783          	lw	a5,0(a5)
   10a3c:	00d787b3          	add	a5,a5,a3
   10a40:	00078067          	jr	a5
   10a44:	000a8513          	mv	a0,s5
   10a48:	274090ef          	jal	ra,19cbc <_localeconv_r>
   10a4c:	00452783          	lw	a5,4(a0)
   10a50:	00078513          	mv	a0,a5
   10a54:	04f12223          	sw	a5,68(sp)
   10a58:	7710b0ef          	jal	ra,1c9c8 <strlen>
   10a5c:	04a12023          	sw	a0,64(sp)
   10a60:	00050413          	mv	s0,a0
   10a64:	000a8513          	mv	a0,s5
   10a68:	254090ef          	jal	ra,19cbc <_localeconv_r>
   10a6c:	00852783          	lw	a5,8(a0)
   10a70:	02f12e23          	sw	a5,60(sp)
   10a74:	00040463          	beqz	s0,10a7c <_vfprintf_r+0x218>
   10a78:	4ec0106f          	j	11f64 <_vfprintf_r+0x1700>
   10a7c:	00094403          	lbu	s0,0(s2)
   10a80:	f99ff06f          	j	10a18 <_vfprintf_r+0x1b4>
   10a84:	0209e993          	ori	s3,s3,32
   10a88:	00094403          	lbu	s0,0(s2)
   10a8c:	f8dff06f          	j	10a18 <_vfprintf_r+0x1b4>
   10a90:	00412583          	lw	a1,4(sp)
   10a94:	01c12503          	lw	a0,28(sp)
   10a98:	4e8050ef          	jal	ra,15f80 <__swsetup_r>
   10a9c:	00050463          	beqz	a0,10aa4 <_vfprintf_r+0x240>
   10aa0:	4380206f          	j	12ed8 <_vfprintf_r+0x2674>
   10aa4:	00412783          	lw	a5,4(sp)
   10aa8:	00a00713          	li	a4,10
   10aac:	00c7d783          	lhu	a5,12(a5)
   10ab0:	01a7f793          	andi	a5,a5,26
   10ab4:	e8e798e3          	bne	a5,a4,10944 <_vfprintf_r+0xe0>
   10ab8:	00412783          	lw	a5,4(sp)
   10abc:	00e79783          	lh	a5,14(a5)
   10ac0:	e807c2e3          	bltz	a5,10944 <_vfprintf_r+0xe0>
   10ac4:	00c12683          	lw	a3,12(sp)
   10ac8:	00412583          	lw	a1,4(sp)
   10acc:	01c12503          	lw	a0,28(sp)
   10ad0:	000c8613          	mv	a2,s9
   10ad4:	095020ef          	jal	ra,13368 <__sbprintf>
   10ad8:	00a12423          	sw	a0,8(sp)
   10adc:	0680006f          	j	10b44 <_vfprintf_r+0x2e0>
   10ae0:	41a48933          	sub	s2,s1,s10
   10ae4:	f0090ae3          	beqz	s2,109f8 <_vfprintf_r+0x194>
   10ae8:	ed1ff06f          	j	109b8 <_vfprintf_r+0x154>
   10aec:	00412583          	lw	a1,4(sp)
   10af0:	0e410613          	addi	a2,sp,228
   10af4:	000a8513          	mv	a0,s5
   10af8:	3f0110ef          	jal	ra,21ee8 <__sprint_r>
   10afc:	02051a63          	bnez	a0,10b30 <_vfprintf_r+0x2cc>
   10b00:	10c10d93          	addi	s11,sp,268
   10b04:	ee1ff06f          	j	109e4 <_vfprintf_r+0x180>
   10b08:	00412583          	lw	a1,4(sp)
   10b0c:	0e410613          	addi	a2,sp,228
   10b10:	000a8513          	mv	a0,s5
   10b14:	3d4110ef          	jal	ra,21ee8 <__sprint_r>
   10b18:	52050063          	beqz	a0,11038 <_vfprintf_r+0x7d4>
   10b1c:	01012783          	lw	a5,16(sp)
   10b20:	00078863          	beqz	a5,10b30 <_vfprintf_r+0x2cc>
   10b24:	01c12503          	lw	a0,28(sp)
   10b28:	00078593          	mv	a1,a5
   10b2c:	1a4060ef          	jal	ra,16cd0 <_free_r>
   10b30:	00412783          	lw	a5,4(sp)
   10b34:	00c7d783          	lhu	a5,12(a5)
   10b38:	0407f793          	andi	a5,a5,64
   10b3c:	00078463          	beqz	a5,10b44 <_vfprintf_r+0x2e0>
   10b40:	3980206f          	j	12ed8 <_vfprintf_r+0x2674>
   10b44:	1ec12083          	lw	ra,492(sp)
   10b48:	1e812403          	lw	s0,488(sp)
   10b4c:	00812503          	lw	a0,8(sp)
   10b50:	1e412483          	lw	s1,484(sp)
   10b54:	1e012903          	lw	s2,480(sp)
   10b58:	1dc12983          	lw	s3,476(sp)
   10b5c:	1d812a03          	lw	s4,472(sp)
   10b60:	1d412a83          	lw	s5,468(sp)
   10b64:	1d012b03          	lw	s6,464(sp)
   10b68:	1cc12b83          	lw	s7,460(sp)
   10b6c:	1c812c03          	lw	s8,456(sp)
   10b70:	1c412c83          	lw	s9,452(sp)
   10b74:	1c012d03          	lw	s10,448(sp)
   10b78:	1bc12d83          	lw	s11,444(sp)
   10b7c:	1f010113          	addi	sp,sp,496
   10b80:	00008067          	ret
   10b84:	0001e797          	auipc	a5,0x1e
   10b88:	78878793          	addi	a5,a5,1928 # 2f30c <zeroes.4505+0x20>
   10b8c:	02f12623          	sw	a5,44(sp)
   10b90:	0209f793          	andi	a5,s3,32
   10b94:	0e078c63          	beqz	a5,10c8c <_vfprintf_r+0x428>
   10b98:	00c12783          	lw	a5,12(sp)
   10b9c:	00778793          	addi	a5,a5,7
   10ba0:	ff87f793          	andi	a5,a5,-8
   10ba4:	0007ac83          	lw	s9,0(a5)
   10ba8:	0047ab83          	lw	s7,4(a5)
   10bac:	00878713          	addi	a4,a5,8
   10bb0:	00e12623          	sw	a4,12(sp)
   10bb4:	0019f713          	andi	a4,s3,1
   10bb8:	00070863          	beqz	a4,10bc8 <_vfprintf_r+0x364>
   10bbc:	017ce733          	or	a4,s9,s7
   10bc0:	00070463          	beqz	a4,10bc8 <_vfprintf_r+0x364>
   10bc4:	3640106f          	j	11f28 <_vfprintf_r+0x16c4>
   10bc8:	bff9fa13          	andi	s4,s3,-1025
   10bcc:	00200713          	li	a4,2
   10bd0:	0c0103a3          	sb	zero,199(sp)
   10bd4:	fff00693          	li	a3,-1
   10bd8:	0edb0ee3          	beq	s6,a3,114d4 <_vfprintf_r+0xc70>
   10bdc:	017ce6b3          	or	a3,s9,s7
   10be0:	f7fa7993          	andi	s3,s4,-129
   10be4:	780698e3          	bnez	a3,11b74 <_vfprintf_r+0x1310>
   10be8:	300b1ce3          	bnez	s6,11700 <_vfprintf_r+0xe9c>
   10bec:	22071663          	bnez	a4,10e18 <_vfprintf_r+0x5b4>
   10bf0:	001a7b93          	andi	s7,s4,1
   10bf4:	1b010d13          	addi	s10,sp,432
   10bf8:	000b8463          	beqz	s7,10c00 <_vfprintf_r+0x39c>
   10bfc:	2d80106f          	j	11ed4 <_vfprintf_r+0x1670>
   10c00:	000b8a13          	mv	s4,s7
   10c04:	016bd463          	bge	s7,s6,10c0c <_vfprintf_r+0x3a8>
   10c08:	000b0a13          	mv	s4,s6
   10c0c:	0c714783          	lbu	a5,199(sp)
   10c10:	00012823          	sw	zero,16(sp)
   10c14:	02012223          	sw	zero,36(sp)
   10c18:	02012023          	sw	zero,32(sp)
   10c1c:	00012a23          	sw	zero,20(sp)
   10c20:	32078263          	beqz	a5,10f44 <_vfprintf_r+0x6e0>
   10c24:	001a0a13          	addi	s4,s4,1
   10c28:	31c0006f          	j	10f44 <_vfprintf_r+0x6e0>
   10c2c:	00000493          	li	s1,0
   10c30:	fd040693          	addi	a3,s0,-48
   10c34:	00190913          	addi	s2,s2,1
   10c38:	00249793          	slli	a5,s1,0x2
   10c3c:	fff94403          	lbu	s0,-1(s2)
   10c40:	009787b3          	add	a5,a5,s1
   10c44:	00179793          	slli	a5,a5,0x1
   10c48:	00f684b3          	add	s1,a3,a5
   10c4c:	fd040693          	addi	a3,s0,-48
   10c50:	feda72e3          	bgeu	s4,a3,10c34 <_vfprintf_r+0x3d0>
   10c54:	fe040793          	addi	a5,s0,-32
   10c58:	dcf778e3          	bgeu	a4,a5,10a28 <_vfprintf_r+0x1c4>
   10c5c:	10040863          	beqz	s0,10d6c <_vfprintf_r+0x508>
   10c60:	14810623          	sb	s0,332(sp)
   10c64:	0c0103a3          	sb	zero,199(sp)
   10c68:	00100a13          	li	s4,1
   10c6c:	00100b93          	li	s7,1
   10c70:	14c10d13          	addi	s10,sp,332
   10c74:	2bc0006f          	j	10f30 <_vfprintf_r+0x6cc>
   10c78:	0001e797          	auipc	a5,0x1e
   10c7c:	6a878793          	addi	a5,a5,1704 # 2f320 <zeroes.4505+0x34>
   10c80:	02f12623          	sw	a5,44(sp)
   10c84:	0209f793          	andi	a5,s3,32
   10c88:	f00798e3          	bnez	a5,10b98 <_vfprintf_r+0x334>
   10c8c:	00c12703          	lw	a4,12(sp)
   10c90:	0109f793          	andi	a5,s3,16
   10c94:	00072c83          	lw	s9,0(a4)
   10c98:	00470713          	addi	a4,a4,4
   10c9c:	00e12623          	sw	a4,12(sp)
   10ca0:	00078463          	beqz	a5,10ca8 <_vfprintf_r+0x444>
   10ca4:	2480106f          	j	11eec <_vfprintf_r+0x1688>
   10ca8:	0409f793          	andi	a5,s3,64
   10cac:	00079463          	bnez	a5,10cb4 <_vfprintf_r+0x450>
   10cb0:	2340106f          	j	11ee4 <_vfprintf_r+0x1680>
   10cb4:	010c9c93          	slli	s9,s9,0x10
   10cb8:	010cdc93          	srli	s9,s9,0x10
   10cbc:	00000b93          	li	s7,0
   10cc0:	ef5ff06f          	j	10bb4 <_vfprintf_r+0x350>
   10cc4:	00094403          	lbu	s0,0(s2)
   10cc8:	0049e993          	ori	s3,s3,4
   10ccc:	d4dff06f          	j	10a18 <_vfprintf_r+0x1b4>
   10cd0:	00094403          	lbu	s0,0(s2)
   10cd4:	00190793          	addi	a5,s2,1
   10cd8:	01741463          	bne	s0,s7,10ce0 <_vfprintf_r+0x47c>
   10cdc:	6180206f          	j	132f4 <_vfprintf_r+0x2a90>
   10ce0:	fd040693          	addi	a3,s0,-48
   10ce4:	00078913          	mv	s2,a5
   10ce8:	00000b13          	li	s6,0
   10cec:	d2da6ae3          	bltu	s4,a3,10a20 <_vfprintf_r+0x1bc>
   10cf0:	00190913          	addi	s2,s2,1
   10cf4:	002b1793          	slli	a5,s6,0x2
   10cf8:	fff94403          	lbu	s0,-1(s2)
   10cfc:	016787b3          	add	a5,a5,s6
   10d00:	00179793          	slli	a5,a5,0x1
   10d04:	00d78b33          	add	s6,a5,a3
   10d08:	fd040693          	addi	a3,s0,-48
   10d0c:	feda72e3          	bgeu	s4,a3,10cf0 <_vfprintf_r+0x48c>
   10d10:	d11ff06f          	j	10a20 <_vfprintf_r+0x1bc>
   10d14:	00c12683          	lw	a3,12(sp)
   10d18:	0209f793          	andi	a5,s3,32
   10d1c:	00468713          	addi	a4,a3,4
   10d20:	00078463          	beqz	a5,10d28 <_vfprintf_r+0x4c4>
   10d24:	2200106f          	j	11f44 <_vfprintf_r+0x16e0>
   10d28:	0109f793          	andi	a5,s3,16
   10d2c:	00078463          	beqz	a5,10d34 <_vfprintf_r+0x4d0>
   10d30:	6380106f          	j	12368 <_vfprintf_r+0x1b04>
   10d34:	0409f793          	andi	a5,s3,64
   10d38:	00078463          	beqz	a5,10d40 <_vfprintf_r+0x4dc>
   10d3c:	2250106f          	j	12760 <_vfprintf_r+0x1efc>
   10d40:	2009f993          	andi	s3,s3,512
   10d44:	00099463          	bnez	s3,10d4c <_vfprintf_r+0x4e8>
   10d48:	6200106f          	j	12368 <_vfprintf_r+0x1b04>
   10d4c:	00c12783          	lw	a5,12(sp)
   10d50:	00e12623          	sw	a4,12(sp)
   10d54:	00812703          	lw	a4,8(sp)
   10d58:	0007a783          	lw	a5,0(a5)
   10d5c:	00090d13          	mv	s10,s2
   10d60:	00e78023          	sb	a4,0(a5)
   10d64:	000d4783          	lbu	a5,0(s10)
   10d68:	c20790e3          	bnez	a5,10988 <_vfprintf_r+0x124>
   10d6c:	0ec12783          	lw	a5,236(sp)
   10d70:	dc0780e3          	beqz	a5,10b30 <_vfprintf_r+0x2cc>
   10d74:	00412583          	lw	a1,4(sp)
   10d78:	01c12503          	lw	a0,28(sp)
   10d7c:	0e410613          	addi	a2,sp,228
   10d80:	168110ef          	jal	ra,21ee8 <__sprint_r>
   10d84:	dadff06f          	j	10b30 <_vfprintf_r+0x2cc>
   10d88:	00094403          	lbu	s0,0(s2)
   10d8c:	06c00793          	li	a5,108
   10d90:	00f41463          	bne	s0,a5,10d98 <_vfprintf_r+0x534>
   10d94:	2940106f          	j	12028 <_vfprintf_r+0x17c4>
   10d98:	0109e993          	ori	s3,s3,16
   10d9c:	c7dff06f          	j	10a18 <_vfprintf_r+0x1b4>
   10da0:	00094403          	lbu	s0,0(s2)
   10da4:	06800793          	li	a5,104
   10da8:	00f41463          	bne	s0,a5,10db0 <_vfprintf_r+0x54c>
   10dac:	26c0106f          	j	12018 <_vfprintf_r+0x17b4>
   10db0:	0409e993          	ori	s3,s3,64
   10db4:	c65ff06f          	j	10a18 <_vfprintf_r+0x1b4>
   10db8:	0209f793          	andi	a5,s3,32
   10dbc:	0a0792e3          	bnez	a5,11660 <_vfprintf_r+0xdfc>
   10dc0:	00c12703          	lw	a4,12(sp)
   10dc4:	0109f793          	andi	a5,s3,16
   10dc8:	00470713          	addi	a4,a4,4
   10dcc:	00078463          	beqz	a5,10dd4 <_vfprintf_r+0x570>
   10dd0:	5700206f          	j	13340 <_vfprintf_r+0x2adc>
   10dd4:	0409f793          	andi	a5,s3,64
   10dd8:	00079463          	bnez	a5,10de0 <_vfprintf_r+0x57c>
   10ddc:	65c0106f          	j	12438 <_vfprintf_r+0x1bd4>
   10de0:	00c12783          	lw	a5,12(sp)
   10de4:	00098a13          	mv	s4,s3
   10de8:	00e12623          	sw	a4,12(sp)
   10dec:	00079c83          	lh	s9,0(a5)
   10df0:	41fcdb93          	srai	s7,s9,0x1f
   10df4:	000b8713          	mv	a4,s7
   10df8:	6a074c63          	bltz	a4,114b0 <_vfprintf_r+0xc4c>
   10dfc:	fff00713          	li	a4,-1
   10e00:	0ceb0ee3          	beq	s6,a4,116dc <_vfprintf_r+0xe78>
   10e04:	017ce733          	or	a4,s9,s7
   10e08:	f7fa7993          	andi	s3,s4,-129
   10e0c:	0c0716e3          	bnez	a4,116d8 <_vfprintf_r+0xe74>
   10e10:	000b0463          	beqz	s6,10e18 <_vfprintf_r+0x5b4>
   10e14:	5b10106f          	j	12bc4 <_vfprintf_r+0x2360>
   10e18:	00000b13          	li	s6,0
   10e1c:	00000b93          	li	s7,0
   10e20:	1b010d13          	addi	s10,sp,432
   10e24:	dddff06f          	j	10c00 <_vfprintf_r+0x39c>
   10e28:	0809e993          	ori	s3,s3,128
   10e2c:	00094403          	lbu	s0,0(s2)
   10e30:	be9ff06f          	j	10a18 <_vfprintf_r+0x1b4>
   10e34:	0209f793          	andi	a5,s3,32
   10e38:	0109ea13          	ori	s4,s3,16
   10e3c:	040798e3          	bnez	a5,1168c <_vfprintf_r+0xe28>
   10e40:	00c12783          	lw	a5,12(sp)
   10e44:	00478713          	addi	a4,a5,4
   10e48:	00c12783          	lw	a5,12(sp)
   10e4c:	00000b93          	li	s7,0
   10e50:	00e12623          	sw	a4,12(sp)
   10e54:	0007ac83          	lw	s9,0(a5)
   10e58:	00100713          	li	a4,1
   10e5c:	d75ff06f          	j	10bd0 <_vfprintf_r+0x36c>
   10e60:	00c12783          	lw	a5,12(sp)
   10e64:	0c0103a3          	sb	zero,199(sp)
   10e68:	0007ad03          	lw	s10,0(a5)
   10e6c:	00478c93          	addi	s9,a5,4
   10e70:	000d1463          	bnez	s10,10e78 <_vfprintf_r+0x614>
   10e74:	1c40106f          	j	12038 <_vfprintf_r+0x17d4>
   10e78:	fff00793          	li	a5,-1
   10e7c:	00fb1463          	bne	s6,a5,10e84 <_vfprintf_r+0x620>
   10e80:	5a80106f          	j	12428 <_vfprintf_r+0x1bc4>
   10e84:	000b0613          	mv	a2,s6
   10e88:	00000593          	li	a1,0
   10e8c:	000d0513          	mv	a0,s10
   10e90:	241090ef          	jal	ra,1a8d0 <memchr>
   10e94:	00a12823          	sw	a0,16(sp)
   10e98:	00051463          	bnez	a0,10ea0 <_vfprintf_r+0x63c>
   10e9c:	7890106f          	j	12e24 <_vfprintf_r+0x25c0>
   10ea0:	01012783          	lw	a5,16(sp)
   10ea4:	41a78bb3          	sub	s7,a5,s10
   10ea8:	0c714783          	lbu	a5,199(sp)
   10eac:	fffbca13          	not	s4,s7
   10eb0:	41fa5a13          	srai	s4,s4,0x1f
   10eb4:	01912623          	sw	s9,12(sp)
   10eb8:	00012823          	sw	zero,16(sp)
   10ebc:	02012223          	sw	zero,36(sp)
   10ec0:	02012023          	sw	zero,32(sp)
   10ec4:	00012a23          	sw	zero,20(sp)
   10ec8:	014bfa33          	and	s4,s7,s4
   10ecc:	00000b13          	li	s6,0
   10ed0:	d4079ae3          	bnez	a5,10c24 <_vfprintf_r+0x3c0>
   10ed4:	0700006f          	j	10f44 <_vfprintf_r+0x6e0>
   10ed8:	0209f793          	andi	a5,s3,32
   10edc:	0109e993          	ori	s3,s3,16
   10ee0:	7c079863          	bnez	a5,116b0 <_vfprintf_r+0xe4c>
   10ee4:	00c12783          	lw	a5,12(sp)
   10ee8:	00478713          	addi	a4,a5,4
   10eec:	00c12783          	lw	a5,12(sp)
   10ef0:	00000b93          	li	s7,0
   10ef4:	00e12623          	sw	a4,12(sp)
   10ef8:	0007ac83          	lw	s9,0(a5)
   10efc:	7d00006f          	j	116cc <_vfprintf_r+0xe68>
   10f00:	0089e993          	ori	s3,s3,8
   10f04:	00094403          	lbu	s0,0(s2)
   10f08:	b11ff06f          	j	10a18 <_vfprintf_r+0x1b4>
   10f0c:	00c12703          	lw	a4,12(sp)
   10f10:	0c0103a3          	sb	zero,199(sp)
   10f14:	00100a13          	li	s4,1
   10f18:	00072783          	lw	a5,0(a4)
   10f1c:	00470713          	addi	a4,a4,4
   10f20:	00e12623          	sw	a4,12(sp)
   10f24:	14f10623          	sb	a5,332(sp)
   10f28:	00100b93          	li	s7,1
   10f2c:	14c10d13          	addi	s10,sp,332
   10f30:	00012823          	sw	zero,16(sp)
   10f34:	00000b13          	li	s6,0
   10f38:	02012223          	sw	zero,36(sp)
   10f3c:	02012023          	sw	zero,32(sp)
   10f40:	00012a23          	sw	zero,20(sp)
   10f44:	0029ff13          	andi	t5,s3,2
   10f48:	000f0463          	beqz	t5,10f50 <_vfprintf_r+0x6ec>
   10f4c:	002a0a13          	addi	s4,s4,2
   10f50:	0849fe93          	andi	t4,s3,132
   10f54:	0ec12783          	lw	a5,236(sp)
   10f58:	000e9663          	bnez	t4,10f64 <_vfprintf_r+0x700>
   10f5c:	414486b3          	sub	a3,s1,s4
   10f60:	40d04ee3          	bgtz	a3,11b7c <_vfprintf_r+0x1318>
   10f64:	0c714703          	lbu	a4,199(sp)
   10f68:	02070a63          	beqz	a4,10f9c <_vfprintf_r+0x738>
   10f6c:	0e812703          	lw	a4,232(sp)
   10f70:	0c710693          	addi	a3,sp,199
   10f74:	00dda023          	sw	a3,0(s11)
   10f78:	00178793          	addi	a5,a5,1
   10f7c:	00100693          	li	a3,1
   10f80:	00170713          	addi	a4,a4,1
   10f84:	00dda223          	sw	a3,4(s11)
   10f88:	0ef12623          	sw	a5,236(sp)
   10f8c:	0ee12423          	sw	a4,232(sp)
   10f90:	00700693          	li	a3,7
   10f94:	008d8d93          	addi	s11,s11,8
   10f98:	0ce6c263          	blt	a3,a4,1105c <_vfprintf_r+0x7f8>
   10f9c:	020f0a63          	beqz	t5,10fd0 <_vfprintf_r+0x76c>
   10fa0:	0e812703          	lw	a4,232(sp)
   10fa4:	0c810693          	addi	a3,sp,200
   10fa8:	00dda023          	sw	a3,0(s11)
   10fac:	00278793          	addi	a5,a5,2
   10fb0:	00200693          	li	a3,2
   10fb4:	00170713          	addi	a4,a4,1
   10fb8:	00dda223          	sw	a3,4(s11)
   10fbc:	0ef12623          	sw	a5,236(sp)
   10fc0:	0ee12423          	sw	a4,232(sp)
   10fc4:	00700693          	li	a3,7
   10fc8:	008d8d93          	addi	s11,s11,8
   10fcc:	4ee6c2e3          	blt	a3,a4,11cb0 <_vfprintf_r+0x144c>
   10fd0:	08000713          	li	a4,128
   10fd4:	0cee88e3          	beq	t4,a4,118a4 <_vfprintf_r+0x1040>
   10fd8:	417b0b33          	sub	s6,s6,s7
   10fdc:	1b604ee3          	bgtz	s6,11998 <_vfprintf_r+0x1134>
   10fe0:	1009f713          	andi	a4,s3,256
   10fe4:	76071c63          	bnez	a4,1175c <_vfprintf_r+0xef8>
   10fe8:	0e812703          	lw	a4,232(sp)
   10fec:	017787b3          	add	a5,a5,s7
   10ff0:	01ada023          	sw	s10,0(s11)
   10ff4:	00170713          	addi	a4,a4,1
   10ff8:	017da223          	sw	s7,4(s11)
   10ffc:	0ef12623          	sw	a5,236(sp)
   11000:	0ee12423          	sw	a4,232(sp)
   11004:	00700693          	li	a3,7
   11008:	0ce6c663          	blt	a3,a4,110d4 <_vfprintf_r+0x870>
   1100c:	008d8d93          	addi	s11,s11,8
   11010:	0049f993          	andi	s3,s3,4
   11014:	00098663          	beqz	s3,11020 <_vfprintf_r+0x7bc>
   11018:	41448433          	sub	s0,s1,s4
   1101c:	0c804c63          	bgtz	s0,110f4 <_vfprintf_r+0x890>
   11020:	0144d463          	bge	s1,s4,11028 <_vfprintf_r+0x7c4>
   11024:	000a0493          	mv	s1,s4
   11028:	00812703          	lw	a4,8(sp)
   1102c:	00970733          	add	a4,a4,s1
   11030:	00e12423          	sw	a4,8(sp)
   11034:	ac079ae3          	bnez	a5,10b08 <_vfprintf_r+0x2a4>
   11038:	01012783          	lw	a5,16(sp)
   1103c:	0e012423          	sw	zero,232(sp)
   11040:	00078863          	beqz	a5,11050 <_vfprintf_r+0x7ec>
   11044:	01012583          	lw	a1,16(sp)
   11048:	000a8513          	mv	a0,s5
   1104c:	485050ef          	jal	ra,16cd0 <_free_r>
   11050:	10c10d93          	addi	s11,sp,268
   11054:	00090d13          	mv	s10,s2
   11058:	d0dff06f          	j	10d64 <_vfprintf_r+0x500>
   1105c:	00412583          	lw	a1,4(sp)
   11060:	0e410613          	addi	a2,sp,228
   11064:	000a8513          	mv	a0,s5
   11068:	05d12423          	sw	t4,72(sp)
   1106c:	03e12a23          	sw	t5,52(sp)
   11070:	679100ef          	jal	ra,21ee8 <__sprint_r>
   11074:	aa0514e3          	bnez	a0,10b1c <_vfprintf_r+0x2b8>
   11078:	0ec12783          	lw	a5,236(sp)
   1107c:	10c10d93          	addi	s11,sp,268
   11080:	04812e83          	lw	t4,72(sp)
   11084:	03412f03          	lw	t5,52(sp)
   11088:	f15ff06f          	j	10f9c <_vfprintf_r+0x738>
   1108c:	0019f613          	andi	a2,s3,1
   11090:	200614e3          	bnez	a2,11a98 <_vfprintf_r+0x1234>
   11094:	00eda223          	sw	a4,4(s11)
   11098:	0f912623          	sw	s9,236(sp)
   1109c:	0e812423          	sw	s0,232(sp)
   110a0:	00700713          	li	a4,7
   110a4:	728740e3          	blt	a4,s0,11fc4 <_vfprintf_r+0x1760>
   110a8:	00268b13          	addi	s6,a3,2
   110ac:	010d8d93          	addi	s11,s11,16
   110b0:	03812683          	lw	a3,56(sp)
   110b4:	0d410713          	addi	a4,sp,212
   110b8:	00eba023          	sw	a4,0(s7)
   110bc:	019687b3          	add	a5,a3,s9
   110c0:	00dba223          	sw	a3,4(s7)
   110c4:	0ef12623          	sw	a5,236(sp)
   110c8:	0f612423          	sw	s6,232(sp)
   110cc:	00700713          	li	a4,7
   110d0:	f56750e3          	bge	a4,s6,11010 <_vfprintf_r+0x7ac>
   110d4:	00412583          	lw	a1,4(sp)
   110d8:	0e410613          	addi	a2,sp,228
   110dc:	000a8513          	mv	a0,s5
   110e0:	609100ef          	jal	ra,21ee8 <__sprint_r>
   110e4:	a2051ce3          	bnez	a0,10b1c <_vfprintf_r+0x2b8>
   110e8:	0ec12783          	lw	a5,236(sp)
   110ec:	10c10d93          	addi	s11,sp,268
   110f0:	f21ff06f          	j	11010 <_vfprintf_r+0x7ac>
   110f4:	0e812703          	lw	a4,232(sp)
   110f8:	0001ec97          	auipc	s9,0x1e
   110fc:	1e4c8c93          	addi	s9,s9,484 # 2f2dc <blanks.4504>
   11100:	068c5063          	bge	s8,s0,11160 <_vfprintf_r+0x8fc>
   11104:	00700993          	li	s3,7
   11108:	00412b03          	lw	s6,4(sp)
   1110c:	00c0006f          	j	11118 <_vfprintf_r+0x8b4>
   11110:	ff040413          	addi	s0,s0,-16
   11114:	048c5663          	bge	s8,s0,11160 <_vfprintf_r+0x8fc>
   11118:	01078793          	addi	a5,a5,16
   1111c:	00170713          	addi	a4,a4,1
   11120:	019da023          	sw	s9,0(s11)
   11124:	018da223          	sw	s8,4(s11)
   11128:	0ef12623          	sw	a5,236(sp)
   1112c:	0ee12423          	sw	a4,232(sp)
   11130:	008d8d93          	addi	s11,s11,8
   11134:	fce9dee3          	bge	s3,a4,11110 <_vfprintf_r+0x8ac>
   11138:	0e410613          	addi	a2,sp,228
   1113c:	000b0593          	mv	a1,s6
   11140:	000a8513          	mv	a0,s5
   11144:	5a5100ef          	jal	ra,21ee8 <__sprint_r>
   11148:	9c051ae3          	bnez	a0,10b1c <_vfprintf_r+0x2b8>
   1114c:	ff040413          	addi	s0,s0,-16
   11150:	0ec12783          	lw	a5,236(sp)
   11154:	0e812703          	lw	a4,232(sp)
   11158:	10c10d93          	addi	s11,sp,268
   1115c:	fa8c4ee3          	blt	s8,s0,11118 <_vfprintf_r+0x8b4>
   11160:	008787b3          	add	a5,a5,s0
   11164:	00170713          	addi	a4,a4,1
   11168:	019da023          	sw	s9,0(s11)
   1116c:	008da223          	sw	s0,4(s11)
   11170:	0ef12623          	sw	a5,236(sp)
   11174:	0ee12423          	sw	a4,232(sp)
   11178:	00700693          	li	a3,7
   1117c:	eae6d2e3          	bge	a3,a4,11020 <_vfprintf_r+0x7bc>
   11180:	00412583          	lw	a1,4(sp)
   11184:	0e410613          	addi	a2,sp,228
   11188:	000a8513          	mv	a0,s5
   1118c:	55d100ef          	jal	ra,21ee8 <__sprint_r>
   11190:	980516e3          	bnez	a0,10b1c <_vfprintf_r+0x2b8>
   11194:	0ec12783          	lw	a5,236(sp)
   11198:	e89ff06f          	j	11020 <_vfprintf_r+0x7bc>
   1119c:	0089f793          	andi	a5,s3,8
   111a0:	54079ae3          	bnez	a5,11ef4 <_vfprintf_r+0x1690>
   111a4:	00c12783          	lw	a5,12(sp)
   111a8:	0b010513          	addi	a0,sp,176
   111ac:	00778793          	addi	a5,a5,7
   111b0:	ff87f793          	andi	a5,a5,-8
   111b4:	0007a583          	lw	a1,0(a5)
   111b8:	0047a603          	lw	a2,4(a5)
   111bc:	00878793          	addi	a5,a5,8
   111c0:	00f12623          	sw	a5,12(sp)
   111c4:	7481d0ef          	jal	ra,2e90c <__extenddftf2>
   111c8:	0b012783          	lw	a5,176(sp)
   111cc:	0ef12823          	sw	a5,240(sp)
   111d0:	0b412783          	lw	a5,180(sp)
   111d4:	0ef12a23          	sw	a5,244(sp)
   111d8:	0b812783          	lw	a5,184(sp)
   111dc:	0ef12c23          	sw	a5,248(sp)
   111e0:	0bc12783          	lw	a5,188(sp)
   111e4:	0ef12e23          	sw	a5,252(sp)
   111e8:	0f010513          	addi	a0,sp,240
   111ec:	265080ef          	jal	ra,19c50 <_ldcheck>
   111f0:	0ca12623          	sw	a0,204(sp)
   111f4:	00200793          	li	a5,2
   111f8:	00f51463          	bne	a0,a5,11200 <_vfprintf_r+0x99c>
   111fc:	0ec0106f          	j	122e8 <_vfprintf_r+0x1a84>
   11200:	00100793          	li	a5,1
   11204:	00f51463          	bne	a0,a5,1120c <_vfprintf_r+0x9a8>
   11208:	28c0106f          	j	12494 <_vfprintf_r+0x1c30>
   1120c:	06100793          	li	a5,97
   11210:	00f41463          	bne	s0,a5,11218 <_vfprintf_r+0x9b4>
   11214:	5a10106f          	j	12fb4 <_vfprintf_r+0x2750>
   11218:	04100793          	li	a5,65
   1121c:	00f41463          	bne	s0,a5,11224 <_vfprintf_r+0x9c0>
   11220:	5dc0106f          	j	127fc <_vfprintf_r+0x1f98>
   11224:	fdf47713          	andi	a4,s0,-33
   11228:	fff00793          	li	a5,-1
   1122c:	04e12423          	sw	a4,72(sp)
   11230:	00fb1463          	bne	s6,a5,11238 <_vfprintf_r+0x9d4>
   11234:	61d0106f          	j	13050 <_vfprintf_r+0x27ec>
   11238:	04700793          	li	a5,71
   1123c:	00f71463          	bne	a4,a5,11244 <_vfprintf_r+0x9e0>
   11240:	6010106f          	j	13040 <_vfprintf_r+0x27dc>
   11244:	0fc12e03          	lw	t3,252(sp)
   11248:	05312a23          	sw	s3,84(sp)
   1124c:	1009e793          	ori	a5,s3,256
   11250:	0f012e83          	lw	t4,240(sp)
   11254:	0f412f03          	lw	t5,244(sp)
   11258:	0f812f83          	lw	t6,248(sp)
   1125c:	000e5463          	bgez	t3,11264 <_vfprintf_r+0xa00>
   11260:	2250106f          	j	12c84 <_vfprintf_r+0x2420>
   11264:	04012e23          	sw	zero,92(sp)
   11268:	00078993          	mv	s3,a5
   1126c:	00012823          	sw	zero,16(sp)
   11270:	04812703          	lw	a4,72(sp)
   11274:	04600793          	li	a5,70
   11278:	00f71463          	bne	a4,a5,11280 <_vfprintf_r+0xa1c>
   1127c:	29d0106f          	j	12d18 <_vfprintf_r+0x24b4>
   11280:	04500793          	li	a5,69
   11284:	00f71463          	bne	a4,a5,1128c <_vfprintf_r+0xa28>
   11288:	4c10106f          	j	12f48 <_vfprintf_r+0x26e4>
   1128c:	0b010b93          	addi	s7,sp,176
   11290:	0d010793          	addi	a5,sp,208
   11294:	0cc10713          	addi	a4,sp,204
   11298:	0dc10813          	addi	a6,sp,220
   1129c:	000b0693          	mv	a3,s6
   112a0:	00200613          	li	a2,2
   112a4:	000b8593          	mv	a1,s7
   112a8:	000a8513          	mv	a0,s5
   112ac:	0bd12823          	sw	t4,176(sp)
   112b0:	03d12223          	sw	t4,36(sp)
   112b4:	0be12a23          	sw	t5,180(sp)
   112b8:	03e12023          	sw	t5,32(sp)
   112bc:	0bf12c23          	sw	t6,184(sp)
   112c0:	01f12c23          	sw	t6,24(sp)
   112c4:	0bc12e23          	sw	t3,188(sp)
   112c8:	01c12a23          	sw	t3,20(sp)
   112cc:	690070ef          	jal	ra,1895c <_ldtoa_r>
   112d0:	04812703          	lw	a4,72(sp)
   112d4:	04700793          	li	a5,71
   112d8:	00050d13          	mv	s10,a0
   112dc:	01412e03          	lw	t3,20(sp)
   112e0:	01812f83          	lw	t6,24(sp)
   112e4:	02012f03          	lw	t5,32(sp)
   112e8:	02412e83          	lw	t4,36(sp)
   112ec:	00f70463          	beq	a4,a5,112f4 <_vfprintf_r+0xa90>
   112f0:	0580206f          	j	13348 <_vfprintf_r+0x2ae4>
   112f4:	05412783          	lw	a5,84(sp)
   112f8:	0017f793          	andi	a5,a5,1
   112fc:	00078463          	beqz	a5,11304 <_vfprintf_r+0xaa0>
   11300:	4390106f          	j	12f38 <_vfprintf_r+0x26d4>
   11304:	0dc12783          	lw	a5,220(sp)
   11308:	41a787b3          	sub	a5,a5,s10
   1130c:	00f12c23          	sw	a5,24(sp)
   11310:	0cc12703          	lw	a4,204(sp)
   11314:	04700793          	li	a5,71
   11318:	00e12a23          	sw	a4,20(sp)
   1131c:	04812703          	lw	a4,72(sp)
   11320:	00f71463          	bne	a4,a5,11328 <_vfprintf_r+0xac4>
   11324:	0d90106f          	j	12bfc <_vfprintf_r+0x2398>
   11328:	04812703          	lw	a4,72(sp)
   1132c:	04600793          	li	a5,70
   11330:	00f71463          	bne	a4,a5,11338 <_vfprintf_r+0xad4>
   11334:	3810106f          	j	12eb4 <_vfprintf_r+0x2650>
   11338:	01412783          	lw	a5,20(sp)
   1133c:	04812603          	lw	a2,72(sp)
   11340:	04100693          	li	a3,65
   11344:	fff78a13          	addi	s4,a5,-1
   11348:	0d412623          	sw	s4,204(sp)
   1134c:	0ff47793          	andi	a5,s0,255
   11350:	00000713          	li	a4,0
   11354:	00d61863          	bne	a2,a3,11364 <_vfprintf_r+0xb00>
   11358:	00f78793          	addi	a5,a5,15
   1135c:	0ff7f793          	andi	a5,a5,255
   11360:	00100713          	li	a4,1
   11364:	0cf10a23          	sb	a5,212(sp)
   11368:	02b00793          	li	a5,43
   1136c:	000a5a63          	bgez	s4,11380 <_vfprintf_r+0xb1c>
   11370:	01412783          	lw	a5,20(sp)
   11374:	00100a13          	li	s4,1
   11378:	40fa0a33          	sub	s4,s4,a5
   1137c:	02d00793          	li	a5,45
   11380:	0cf10aa3          	sb	a5,213(sp)
   11384:	00900793          	li	a5,9
   11388:	0147c463          	blt	a5,s4,11390 <_vfprintf_r+0xb2c>
   1138c:	5550106f          	j	130e0 <_vfprintf_r+0x287c>
   11390:	0e310b13          	addi	s6,sp,227
   11394:	000b0b93          	mv	s7,s6
   11398:	06300993          	li	s3,99
   1139c:	00c0006f          	j	113a8 <_vfprintf_r+0xb44>
   113a0:	00068b93          	mv	s7,a3
   113a4:	00050a13          	mv	s4,a0
   113a8:	00a00593          	li	a1,10
   113ac:	000a0513          	mv	a0,s4
   113b0:	93cff0ef          	jal	ra,104ec <__modsi3>
   113b4:	03050513          	addi	a0,a0,48
   113b8:	feab8fa3          	sb	a0,-1(s7)
   113bc:	00a00593          	li	a1,10
   113c0:	000a0513          	mv	a0,s4
   113c4:	8a4ff0ef          	jal	ra,10468 <__divsi3>
   113c8:	fffb8693          	addi	a3,s7,-1
   113cc:	fd49cae3          	blt	s3,s4,113a0 <_vfprintf_r+0xb3c>
   113d0:	03050793          	addi	a5,a0,48
   113d4:	0ff7f793          	andi	a5,a5,255
   113d8:	ffeb8713          	addi	a4,s7,-2
   113dc:	fef68fa3          	sb	a5,-1(a3)
   113e0:	01676463          	bltu	a4,s6,113e8 <_vfprintf_r+0xb84>
   113e4:	73d0106f          	j	13320 <_vfprintf_r+0x2abc>
   113e8:	0d610693          	addi	a3,sp,214
   113ec:	0080006f          	j	113f4 <_vfprintf_r+0xb90>
   113f0:	00074783          	lbu	a5,0(a4)
   113f4:	00168693          	addi	a3,a3,1
   113f8:	00170713          	addi	a4,a4,1
   113fc:	fef68fa3          	sb	a5,-1(a3)
   11400:	ff6718e3          	bne	a4,s6,113f0 <_vfprintf_r+0xb8c>
   11404:	0e510793          	addi	a5,sp,229
   11408:	0d610713          	addi	a4,sp,214
   1140c:	417787b3          	sub	a5,a5,s7
   11410:	00f707b3          	add	a5,a4,a5
   11414:	0d410713          	addi	a4,sp,212
   11418:	40e787b3          	sub	a5,a5,a4
   1141c:	02f12c23          	sw	a5,56(sp)
   11420:	01812703          	lw	a4,24(sp)
   11424:	03812683          	lw	a3,56(sp)
   11428:	00100793          	li	a5,1
   1142c:	00d70bb3          	add	s7,a4,a3
   11430:	00e7c463          	blt	a5,a4,11438 <_vfprintf_r+0xbd4>
   11434:	5f50106f          	j	13228 <_vfprintf_r+0x29c4>
   11438:	02812783          	lw	a5,40(sp)
   1143c:	00fb8bb3          	add	s7,s7,a5
   11440:	05412783          	lw	a5,84(sp)
   11444:	fffbca13          	not	s4,s7
   11448:	41fa5a13          	srai	s4,s4,0x1f
   1144c:	bff7f993          	andi	s3,a5,-1025
   11450:	1009e993          	ori	s3,s3,256
   11454:	014bfa33          	and	s4,s7,s4
   11458:	02012223          	sw	zero,36(sp)
   1145c:	02012023          	sw	zero,32(sp)
   11460:	00012a23          	sw	zero,20(sp)
   11464:	05c12783          	lw	a5,92(sp)
   11468:	00079463          	bnez	a5,11470 <_vfprintf_r+0xc0c>
   1146c:	0050106f          	j	12c70 <_vfprintf_r+0x240c>
   11470:	02d00793          	li	a5,45
   11474:	0cf103a3          	sb	a5,199(sp)
   11478:	00000b13          	li	s6,0
   1147c:	001a0a13          	addi	s4,s4,1
   11480:	ac5ff06f          	j	10f44 <_vfprintf_r+0x6e0>
   11484:	0209f793          	andi	a5,s3,32
   11488:	0109ea13          	ori	s4,s3,16
   1148c:	1c079c63          	bnez	a5,11664 <_vfprintf_r+0xe00>
   11490:	00c12783          	lw	a5,12(sp)
   11494:	00478713          	addi	a4,a5,4
   11498:	00c12783          	lw	a5,12(sp)
   1149c:	00e12623          	sw	a4,12(sp)
   114a0:	0007ac83          	lw	s9,0(a5)
   114a4:	41fcdb93          	srai	s7,s9,0x1f
   114a8:	000b8713          	mv	a4,s7
   114ac:	940758e3          	bgez	a4,10dfc <_vfprintf_r+0x598>
   114b0:	41900cb3          	neg	s9,s9
   114b4:	01903733          	snez	a4,s9
   114b8:	417007b3          	neg	a5,s7
   114bc:	40e78bb3          	sub	s7,a5,a4
   114c0:	02d00713          	li	a4,45
   114c4:	0ce103a3          	sb	a4,199(sp)
   114c8:	fff00693          	li	a3,-1
   114cc:	00100713          	li	a4,1
   114d0:	f0db1663          	bne	s6,a3,10bdc <_vfprintf_r+0x378>
   114d4:	00100693          	li	a3,1
   114d8:	20d70263          	beq	a4,a3,116dc <_vfprintf_r+0xe78>
   114dc:	00200693          	li	a3,2
   114e0:	22d70c63          	beq	a4,a3,11718 <_vfprintf_r+0xeb4>
   114e4:	1b010693          	addi	a3,sp,432
   114e8:	0080006f          	j	114f0 <_vfprintf_r+0xc8c>
   114ec:	000d0693          	mv	a3,s10
   114f0:	01db9793          	slli	a5,s7,0x1d
   114f4:	007cf713          	andi	a4,s9,7
   114f8:	003cdc93          	srli	s9,s9,0x3
   114fc:	03070713          	addi	a4,a4,48
   11500:	0197ecb3          	or	s9,a5,s9
   11504:	003bdb93          	srli	s7,s7,0x3
   11508:	fee68fa3          	sb	a4,-1(a3)
   1150c:	017ce7b3          	or	a5,s9,s7
   11510:	fff68d13          	addi	s10,a3,-1
   11514:	fc079ce3          	bnez	a5,114ec <_vfprintf_r+0xc88>
   11518:	001a7793          	andi	a5,s4,1
   1151c:	22078863          	beqz	a5,1174c <_vfprintf_r+0xee8>
   11520:	03000793          	li	a5,48
   11524:	22f70463          	beq	a4,a5,1174c <_vfprintf_r+0xee8>
   11528:	ffe68693          	addi	a3,a3,-2
   1152c:	fefd0fa3          	sb	a5,-1(s10)
   11530:	1b010793          	addi	a5,sp,432
   11534:	40d78bb3          	sub	s7,a5,a3
   11538:	000a0993          	mv	s3,s4
   1153c:	00068d13          	mv	s10,a3
   11540:	ec0ff06f          	j	10c00 <_vfprintf_r+0x39c>
   11544:	00c12783          	lw	a5,12(sp)
   11548:	ffff8737          	lui	a4,0xffff8
   1154c:	83074713          	xori	a4,a4,-2000
   11550:	0007ac83          	lw	s9,0(a5)
   11554:	00478793          	addi	a5,a5,4
   11558:	00f12623          	sw	a5,12(sp)
   1155c:	0001e797          	auipc	a5,0x1e
   11560:	db078793          	addi	a5,a5,-592 # 2f30c <zeroes.4505+0x20>
   11564:	0ce11423          	sh	a4,200(sp)
   11568:	00000b93          	li	s7,0
   1156c:	0029ea13          	ori	s4,s3,2
   11570:	02f12623          	sw	a5,44(sp)
   11574:	00200713          	li	a4,2
   11578:	07800413          	li	s0,120
   1157c:	e54ff06f          	j	10bd0 <_vfprintf_r+0x36c>
   11580:	0c714783          	lbu	a5,199(sp)
   11584:	00094403          	lbu	s0,0(s2)
   11588:	c8079863          	bnez	a5,10a18 <_vfprintf_r+0x1b4>
   1158c:	02000793          	li	a5,32
   11590:	0cf103a3          	sb	a5,199(sp)
   11594:	c84ff06f          	j	10a18 <_vfprintf_r+0x1b4>
   11598:	02b00793          	li	a5,43
   1159c:	0cf103a3          	sb	a5,199(sp)
   115a0:	00094403          	lbu	s0,0(s2)
   115a4:	c74ff06f          	j	10a18 <_vfprintf_r+0x1b4>
   115a8:	00c12783          	lw	a5,12(sp)
   115ac:	00094403          	lbu	s0,0(s2)
   115b0:	0007a483          	lw	s1,0(a5)
   115b4:	00478793          	addi	a5,a5,4
   115b8:	00f12623          	sw	a5,12(sp)
   115bc:	c404de63          	bgez	s1,10a18 <_vfprintf_r+0x1b4>
   115c0:	409004b3          	neg	s1,s1
   115c4:	0049e993          	ori	s3,s3,4
   115c8:	c50ff06f          	j	10a18 <_vfprintf_r+0x1b4>
   115cc:	0019e993          	ori	s3,s3,1
   115d0:	00094403          	lbu	s0,0(s2)
   115d4:	c44ff06f          	j	10a18 <_vfprintf_r+0x1b4>
   115d8:	0209f793          	andi	a5,s3,32
   115dc:	0c079a63          	bnez	a5,116b0 <_vfprintf_r+0xe4c>
   115e0:	00c12683          	lw	a3,12(sp)
   115e4:	0109f793          	andi	a5,s3,16
   115e8:	00468713          	addi	a4,a3,4
   115ec:	0006ac83          	lw	s9,0(a3)
   115f0:	8e079ee3          	bnez	a5,10eec <_vfprintf_r+0x688>
   115f4:	0409f793          	andi	a5,s3,64
   115f8:	660782e3          	beqz	a5,1245c <_vfprintf_r+0x1bf8>
   115fc:	010c9c93          	slli	s9,s9,0x10
   11600:	010cdc93          	srli	s9,s9,0x10
   11604:	00000b93          	li	s7,0
   11608:	00e12623          	sw	a4,12(sp)
   1160c:	0c00006f          	j	116cc <_vfprintf_r+0xe68>
   11610:	0209f793          	andi	a5,s3,32
   11614:	06079a63          	bnez	a5,11688 <_vfprintf_r+0xe24>
   11618:	00c12683          	lw	a3,12(sp)
   1161c:	0109f793          	andi	a5,s3,16
   11620:	00468713          	addi	a4,a3,4
   11624:	0006ac83          	lw	s9,0(a3)
   11628:	00078463          	beqz	a5,11630 <_vfprintf_r+0xdcc>
   1162c:	4ed0106f          	j	13318 <_vfprintf_r+0x2ab4>
   11630:	0409f793          	andi	a5,s3,64
   11634:	640780e3          	beqz	a5,12474 <_vfprintf_r+0x1c10>
   11638:	010c9c93          	slli	s9,s9,0x10
   1163c:	00e12623          	sw	a4,12(sp)
   11640:	010cdc93          	srli	s9,s9,0x10
   11644:	00000b93          	li	s7,0
   11648:	00098a13          	mv	s4,s3
   1164c:	00100713          	li	a4,1
   11650:	d80ff06f          	j	10bd0 <_vfprintf_r+0x36c>
   11654:	01c12503          	lw	a0,28(sp)
   11658:	25c050ef          	jal	ra,168b4 <__sinit>
   1165c:	a88ff06f          	j	108e4 <_vfprintf_r+0x80>
   11660:	00098a13          	mv	s4,s3
   11664:	00c12783          	lw	a5,12(sp)
   11668:	00778793          	addi	a5,a5,7
   1166c:	ff87f793          	andi	a5,a5,-8
   11670:	0047a703          	lw	a4,4(a5)
   11674:	00878693          	addi	a3,a5,8
   11678:	00d12623          	sw	a3,12(sp)
   1167c:	0007ac83          	lw	s9,0(a5)
   11680:	00070b93          	mv	s7,a4
   11684:	f74ff06f          	j	10df8 <_vfprintf_r+0x594>
   11688:	00098a13          	mv	s4,s3
   1168c:	00c12783          	lw	a5,12(sp)
   11690:	00778793          	addi	a5,a5,7
   11694:	ff87f793          	andi	a5,a5,-8
   11698:	00878713          	addi	a4,a5,8
   1169c:	00e12623          	sw	a4,12(sp)
   116a0:	0007ac83          	lw	s9,0(a5)
   116a4:	0047ab83          	lw	s7,4(a5)
   116a8:	00100713          	li	a4,1
   116ac:	d24ff06f          	j	10bd0 <_vfprintf_r+0x36c>
   116b0:	00c12783          	lw	a5,12(sp)
   116b4:	00778793          	addi	a5,a5,7
   116b8:	ff87f793          	andi	a5,a5,-8
   116bc:	0007ac83          	lw	s9,0(a5)
   116c0:	0047ab83          	lw	s7,4(a5)
   116c4:	00878713          	addi	a4,a5,8
   116c8:	00e12623          	sw	a4,12(sp)
   116cc:	bff9fa13          	andi	s4,s3,-1025
   116d0:	00000713          	li	a4,0
   116d4:	cfcff06f          	j	10bd0 <_vfprintf_r+0x36c>
   116d8:	00098a13          	mv	s4,s3
   116dc:	2e0b96e3          	bnez	s7,121c8 <_vfprintf_r+0x1964>
   116e0:	00900713          	li	a4,9
   116e4:	2f9762e3          	bltu	a4,s9,121c8 <_vfprintf_r+0x1964>
   116e8:	030c8c93          	addi	s9,s9,48
   116ec:	1b9107a3          	sb	s9,431(sp)
   116f0:	000a0993          	mv	s3,s4
   116f4:	00100b93          	li	s7,1
   116f8:	1af10d13          	addi	s10,sp,431
   116fc:	d04ff06f          	j	10c00 <_vfprintf_r+0x39c>
   11700:	00100693          	li	a3,1
   11704:	00d71463          	bne	a4,a3,1170c <_vfprintf_r+0xea8>
   11708:	4bc0106f          	j	12bc4 <_vfprintf_r+0x2360>
   1170c:	00200693          	li	a3,2
   11710:	00098a13          	mv	s4,s3
   11714:	dcd718e3          	bne	a4,a3,114e4 <_vfprintf_r+0xc80>
   11718:	02c12683          	lw	a3,44(sp)
   1171c:	1b010d13          	addi	s10,sp,432
   11720:	00fcf793          	andi	a5,s9,15
   11724:	00f687b3          	add	a5,a3,a5
   11728:	0007c783          	lbu	a5,0(a5)
   1172c:	01cb9713          	slli	a4,s7,0x1c
   11730:	004cdc93          	srli	s9,s9,0x4
   11734:	fffd0d13          	addi	s10,s10,-1
   11738:	01976cb3          	or	s9,a4,s9
   1173c:	004bdb93          	srli	s7,s7,0x4
   11740:	00fd0023          	sb	a5,0(s10)
   11744:	017ce7b3          	or	a5,s9,s7
   11748:	fc079ce3          	bnez	a5,11720 <_vfprintf_r+0xebc>
   1174c:	1b010793          	addi	a5,sp,432
   11750:	41a78bb3          	sub	s7,a5,s10
   11754:	000a0993          	mv	s3,s4
   11758:	ca8ff06f          	j	10c00 <_vfprintf_r+0x39c>
   1175c:	06500713          	li	a4,101
   11760:	30875c63          	bge	a4,s0,11a78 <_vfprintf_r+0x1214>
   11764:	0f012703          	lw	a4,240(sp)
   11768:	0a010593          	addi	a1,sp,160
   1176c:	0b010513          	addi	a0,sp,176
   11770:	0ae12823          	sw	a4,176(sp)
   11774:	0f412703          	lw	a4,244(sp)
   11778:	02f12a23          	sw	a5,52(sp)
   1177c:	0a012023          	sw	zero,160(sp)
   11780:	0ae12a23          	sw	a4,180(sp)
   11784:	0f812703          	lw	a4,248(sp)
   11788:	0a012223          	sw	zero,164(sp)
   1178c:	0a012423          	sw	zero,168(sp)
   11790:	0ae12c23          	sw	a4,184(sp)
   11794:	0fc12703          	lw	a4,252(sp)
   11798:	0a012623          	sw	zero,172(sp)
   1179c:	0ae12e23          	sw	a4,188(sp)
   117a0:	13c1a0ef          	jal	ra,2b8dc <__eqtf2>
   117a4:	03412783          	lw	a5,52(sp)
   117a8:	52051a63          	bnez	a0,11cdc <_vfprintf_r+0x1478>
   117ac:	0e812703          	lw	a4,232(sp)
   117b0:	0001e697          	auipc	a3,0x1e
   117b4:	b8c68693          	addi	a3,a3,-1140 # 2f33c <zeroes.4505+0x50>
   117b8:	00178793          	addi	a5,a5,1
   117bc:	00dda023          	sw	a3,0(s11)
   117c0:	00170713          	addi	a4,a4,1 # ffff8001 <__BSS_END__+0xfffc64ad>
   117c4:	00100693          	li	a3,1
   117c8:	00dda223          	sw	a3,4(s11)
   117cc:	0ef12623          	sw	a5,236(sp)
   117d0:	0ee12423          	sw	a4,232(sp)
   117d4:	00700793          	li	a5,7
   117d8:	008d8d93          	addi	s11,s11,8
   117dc:	2ae7cee3          	blt	a5,a4,12298 <_vfprintf_r+0x1a34>
   117e0:	0cc12783          	lw	a5,204(sp)
   117e4:	01812703          	lw	a4,24(sp)
   117e8:	00e7ca63          	blt	a5,a4,117fc <_vfprintf_r+0xf98>
   117ec:	0019f793          	andi	a5,s3,1
   117f0:	00079663          	bnez	a5,117fc <_vfprintf_r+0xf98>
   117f4:	0ec12783          	lw	a5,236(sp)
   117f8:	819ff06f          	j	11010 <_vfprintf_r+0x7ac>
   117fc:	03012783          	lw	a5,48(sp)
   11800:	02812683          	lw	a3,40(sp)
   11804:	0e812703          	lw	a4,232(sp)
   11808:	00fda023          	sw	a5,0(s11)
   1180c:	0ec12783          	lw	a5,236(sp)
   11810:	00170713          	addi	a4,a4,1
   11814:	00dda223          	sw	a3,4(s11)
   11818:	00f687b3          	add	a5,a3,a5
   1181c:	0ef12623          	sw	a5,236(sp)
   11820:	0ee12423          	sw	a4,232(sp)
   11824:	00700693          	li	a3,7
   11828:	008d8d93          	addi	s11,s11,8
   1182c:	7ce6c463          	blt	a3,a4,11ff4 <_vfprintf_r+0x1790>
   11830:	01812703          	lw	a4,24(sp)
   11834:	fff70413          	addi	s0,a4,-1
   11838:	fc805c63          	blez	s0,11010 <_vfprintf_r+0x7ac>
   1183c:	0e812703          	lw	a4,232(sp)
   11840:	268c5ce3          	bge	s8,s0,122b8 <_vfprintf_r+0x1a54>
   11844:	00700b93          	li	s7,7
   11848:	00412b03          	lw	s6,4(sp)
   1184c:	00c0006f          	j	11858 <_vfprintf_r+0xff4>
   11850:	ff040413          	addi	s0,s0,-16
   11854:	268c52e3          	bge	s8,s0,122b8 <_vfprintf_r+0x1a54>
   11858:	01078793          	addi	a5,a5,16
   1185c:	00170713          	addi	a4,a4,1
   11860:	0001e697          	auipc	a3,0x1e
   11864:	a8c68693          	addi	a3,a3,-1396 # 2f2ec <zeroes.4505>
   11868:	00dda023          	sw	a3,0(s11)
   1186c:	018da223          	sw	s8,4(s11)
   11870:	0ef12623          	sw	a5,236(sp)
   11874:	0ee12423          	sw	a4,232(sp)
   11878:	008d8d93          	addi	s11,s11,8
   1187c:	fcebdae3          	bge	s7,a4,11850 <_vfprintf_r+0xfec>
   11880:	0e410613          	addi	a2,sp,228
   11884:	000b0593          	mv	a1,s6
   11888:	000a8513          	mv	a0,s5
   1188c:	65c100ef          	jal	ra,21ee8 <__sprint_r>
   11890:	a8051663          	bnez	a0,10b1c <_vfprintf_r+0x2b8>
   11894:	0ec12783          	lw	a5,236(sp)
   11898:	0e812703          	lw	a4,232(sp)
   1189c:	10c10d93          	addi	s11,sp,268
   118a0:	fb1ff06f          	j	11850 <_vfprintf_r+0xfec>
   118a4:	41448cb3          	sub	s9,s1,s4
   118a8:	f3905863          	blez	s9,10fd8 <_vfprintf_r+0x774>
   118ac:	0e812703          	lw	a4,232(sp)
   118b0:	099c5e63          	bge	s8,s9,1194c <_vfprintf_r+0x10e8>
   118b4:	000c8693          	mv	a3,s9
   118b8:	02812a23          	sw	s0,52(sp)
   118bc:	000b8c93          	mv	s9,s7
   118c0:	00700e13          	li	t3,7
   118c4:	000a0b93          	mv	s7,s4
   118c8:	00412403          	lw	s0,4(sp)
   118cc:	00048a13          	mv	s4,s1
   118d0:	00068493          	mv	s1,a3
   118d4:	00c0006f          	j	118e0 <_vfprintf_r+0x107c>
   118d8:	ff048493          	addi	s1,s1,-16
   118dc:	049c5c63          	bge	s8,s1,11934 <_vfprintf_r+0x10d0>
   118e0:	01078793          	addi	a5,a5,16
   118e4:	00170713          	addi	a4,a4,1
   118e8:	0001e697          	auipc	a3,0x1e
   118ec:	a0468693          	addi	a3,a3,-1532 # 2f2ec <zeroes.4505>
   118f0:	00dda023          	sw	a3,0(s11)
   118f4:	018da223          	sw	s8,4(s11)
   118f8:	0ef12623          	sw	a5,236(sp)
   118fc:	0ee12423          	sw	a4,232(sp)
   11900:	008d8d93          	addi	s11,s11,8
   11904:	fcee5ae3          	bge	t3,a4,118d8 <_vfprintf_r+0x1074>
   11908:	0e410613          	addi	a2,sp,228
   1190c:	00040593          	mv	a1,s0
   11910:	000a8513          	mv	a0,s5
   11914:	5d4100ef          	jal	ra,21ee8 <__sprint_r>
   11918:	a0051263          	bnez	a0,10b1c <_vfprintf_r+0x2b8>
   1191c:	ff048493          	addi	s1,s1,-16
   11920:	0ec12783          	lw	a5,236(sp)
   11924:	0e812703          	lw	a4,232(sp)
   11928:	10c10d93          	addi	s11,sp,268
   1192c:	00700e13          	li	t3,7
   11930:	fa9c48e3          	blt	s8,s1,118e0 <_vfprintf_r+0x107c>
   11934:	03412403          	lw	s0,52(sp)
   11938:	00048693          	mv	a3,s1
   1193c:	000a0493          	mv	s1,s4
   11940:	000b8a13          	mv	s4,s7
   11944:	000c8b93          	mv	s7,s9
   11948:	00068c93          	mv	s9,a3
   1194c:	0001e697          	auipc	a3,0x1e
   11950:	9a068693          	addi	a3,a3,-1632 # 2f2ec <zeroes.4505>
   11954:	019787b3          	add	a5,a5,s9
   11958:	00170713          	addi	a4,a4,1
   1195c:	00dda023          	sw	a3,0(s11)
   11960:	019da223          	sw	s9,4(s11)
   11964:	0ef12623          	sw	a5,236(sp)
   11968:	0ee12423          	sw	a4,232(sp)
   1196c:	00700693          	li	a3,7
   11970:	008d8d93          	addi	s11,s11,8
   11974:	e6e6d263          	bge	a3,a4,10fd8 <_vfprintf_r+0x774>
   11978:	00412583          	lw	a1,4(sp)
   1197c:	0e410613          	addi	a2,sp,228
   11980:	000a8513          	mv	a0,s5
   11984:	564100ef          	jal	ra,21ee8 <__sprint_r>
   11988:	98051a63          	bnez	a0,10b1c <_vfprintf_r+0x2b8>
   1198c:	0ec12783          	lw	a5,236(sp)
   11990:	10c10d93          	addi	s11,sp,268
   11994:	e44ff06f          	j	10fd8 <_vfprintf_r+0x774>
   11998:	0e812703          	lw	a4,232(sp)
   1199c:	096c5863          	bge	s8,s6,11a2c <_vfprintf_r+0x11c8>
   119a0:	000a0693          	mv	a3,s4
   119a4:	02812a23          	sw	s0,52(sp)
   119a8:	00048a13          	mv	s4,s1
   119ac:	00700c93          	li	s9,7
   119b0:	000b0493          	mv	s1,s6
   119b4:	00412403          	lw	s0,4(sp)
   119b8:	00068b13          	mv	s6,a3
   119bc:	00c0006f          	j	119c8 <_vfprintf_r+0x1164>
   119c0:	ff048493          	addi	s1,s1,-16
   119c4:	049c5a63          	bge	s8,s1,11a18 <_vfprintf_r+0x11b4>
   119c8:	01078793          	addi	a5,a5,16
   119cc:	00170713          	addi	a4,a4,1
   119d0:	0001e697          	auipc	a3,0x1e
   119d4:	91c68693          	addi	a3,a3,-1764 # 2f2ec <zeroes.4505>
   119d8:	00dda023          	sw	a3,0(s11)
   119dc:	018da223          	sw	s8,4(s11)
   119e0:	0ef12623          	sw	a5,236(sp)
   119e4:	0ee12423          	sw	a4,232(sp)
   119e8:	008d8d93          	addi	s11,s11,8
   119ec:	fcecdae3          	bge	s9,a4,119c0 <_vfprintf_r+0x115c>
   119f0:	0e410613          	addi	a2,sp,228
   119f4:	00040593          	mv	a1,s0
   119f8:	000a8513          	mv	a0,s5
   119fc:	4ec100ef          	jal	ra,21ee8 <__sprint_r>
   11a00:	90051e63          	bnez	a0,10b1c <_vfprintf_r+0x2b8>
   11a04:	ff048493          	addi	s1,s1,-16
   11a08:	0ec12783          	lw	a5,236(sp)
   11a0c:	0e812703          	lw	a4,232(sp)
   11a10:	10c10d93          	addi	s11,sp,268
   11a14:	fa9c4ae3          	blt	s8,s1,119c8 <_vfprintf_r+0x1164>
   11a18:	03412403          	lw	s0,52(sp)
   11a1c:	000b0693          	mv	a3,s6
   11a20:	00048b13          	mv	s6,s1
   11a24:	000a0493          	mv	s1,s4
   11a28:	00068a13          	mv	s4,a3
   11a2c:	0001e697          	auipc	a3,0x1e
   11a30:	8c068693          	addi	a3,a3,-1856 # 2f2ec <zeroes.4505>
   11a34:	016787b3          	add	a5,a5,s6
   11a38:	00170713          	addi	a4,a4,1
   11a3c:	00dda023          	sw	a3,0(s11)
   11a40:	016da223          	sw	s6,4(s11)
   11a44:	0ef12623          	sw	a5,236(sp)
   11a48:	0ee12423          	sw	a4,232(sp)
   11a4c:	00700693          	li	a3,7
   11a50:	008d8d93          	addi	s11,s11,8
   11a54:	d8e6d663          	bge	a3,a4,10fe0 <_vfprintf_r+0x77c>
   11a58:	00412583          	lw	a1,4(sp)
   11a5c:	0e410613          	addi	a2,sp,228
   11a60:	000a8513          	mv	a0,s5
   11a64:	484100ef          	jal	ra,21ee8 <__sprint_r>
   11a68:	8a051a63          	bnez	a0,10b1c <_vfprintf_r+0x2b8>
   11a6c:	0ec12783          	lw	a5,236(sp)
   11a70:	10c10d93          	addi	s11,sp,268
   11a74:	d6cff06f          	j	10fe0 <_vfprintf_r+0x77c>
   11a78:	0e812683          	lw	a3,232(sp)
   11a7c:	00178c93          	addi	s9,a5,1
   11a80:	01812783          	lw	a5,24(sp)
   11a84:	00100713          	li	a4,1
   11a88:	01ada023          	sw	s10,0(s11)
   11a8c:	00168413          	addi	s0,a3,1
   11a90:	008d8b93          	addi	s7,s11,8
   11a94:	def75c63          	bge	a4,a5,1108c <_vfprintf_r+0x828>
   11a98:	00100713          	li	a4,1
   11a9c:	00eda223          	sw	a4,4(s11)
   11aa0:	0f912623          	sw	s9,236(sp)
   11aa4:	0e812423          	sw	s0,232(sp)
   11aa8:	00700713          	li	a4,7
   11aac:	62874063          	blt	a4,s0,120cc <_vfprintf_r+0x1868>
   11ab0:	02812783          	lw	a5,40(sp)
   11ab4:	03012703          	lw	a4,48(sp)
   11ab8:	00140413          	addi	s0,s0,1
   11abc:	00fc8cb3          	add	s9,s9,a5
   11ac0:	00eba023          	sw	a4,0(s7)
   11ac4:	00fba223          	sw	a5,4(s7)
   11ac8:	0f912623          	sw	s9,236(sp)
   11acc:	0e812423          	sw	s0,232(sp)
   11ad0:	00700713          	li	a4,7
   11ad4:	008b8b93          	addi	s7,s7,8
   11ad8:	60874e63          	blt	a4,s0,120f4 <_vfprintf_r+0x1890>
   11adc:	0f012703          	lw	a4,240(sp)
   11ae0:	01812783          	lw	a5,24(sp)
   11ae4:	00140613          	addi	a2,s0,1
   11ae8:	0ae12823          	sw	a4,176(sp)
   11aec:	0f412703          	lw	a4,244(sp)
   11af0:	0a010593          	addi	a1,sp,160
   11af4:	0b010513          	addi	a0,sp,176
   11af8:	0ae12a23          	sw	a4,180(sp)
   11afc:	0f812703          	lw	a4,248(sp)
   11b00:	00060b13          	mv	s6,a2
   11b04:	02c12023          	sw	a2,32(sp)
   11b08:	0ae12c23          	sw	a4,184(sp)
   11b0c:	0fc12703          	lw	a4,252(sp)
   11b10:	0a012023          	sw	zero,160(sp)
   11b14:	0a012223          	sw	zero,164(sp)
   11b18:	0ae12e23          	sw	a4,188(sp)
   11b1c:	fff78713          	addi	a4,a5,-1
   11b20:	00e12a23          	sw	a4,20(sp)
   11b24:	0a012423          	sw	zero,168(sp)
   11b28:	0a012623          	sw	zero,172(sp)
   11b2c:	5b1190ef          	jal	ra,2b8dc <__eqtf2>
   11b30:	008b8d93          	addi	s11,s7,8
   11b34:	01412703          	lw	a4,20(sp)
   11b38:	02012603          	lw	a2,32(sp)
   11b3c:	32050063          	beqz	a0,11e5c <_vfprintf_r+0x15f8>
   11b40:	00ec8cb3          	add	s9,s9,a4
   11b44:	001d0813          	addi	a6,s10,1
   11b48:	00eba223          	sw	a4,4(s7)
   11b4c:	010ba023          	sw	a6,0(s7)
   11b50:	0f912623          	sw	s9,236(sp)
   11b54:	0f612423          	sw	s6,232(sp)
   11b58:	00700713          	li	a4,7
   11b5c:	47674463          	blt	a4,s6,11fc4 <_vfprintf_r+0x1760>
   11b60:	010b8713          	addi	a4,s7,16
   11b64:	00240b13          	addi	s6,s0,2
   11b68:	000d8b93          	mv	s7,s11
   11b6c:	00070d93          	mv	s11,a4
   11b70:	d40ff06f          	j	110b0 <_vfprintf_r+0x84c>
   11b74:	00098a13          	mv	s4,s3
   11b78:	95dff06f          	j	114d4 <_vfprintf_r+0xc70>
   11b7c:	0e812703          	lw	a4,232(sp)
   11b80:	0001dc97          	auipc	s9,0x1d
   11b84:	75cc8c93          	addi	s9,s9,1884 # 2f2dc <blanks.4504>
   11b88:	0cdc5863          	bge	s8,a3,11c58 <_vfprintf_r+0x13f4>
   11b8c:	05212623          	sw	s2,76(sp)
   11b90:	000d8613          	mv	a2,s11
   11b94:	000c8913          	mv	s2,s9
   11b98:	000d0d93          	mv	s11,s10
   11b9c:	000a0c93          	mv	s9,s4
   11ba0:	000b8d13          	mv	s10,s7
   11ba4:	00098a13          	mv	s4,s3
   11ba8:	000b0b93          	mv	s7,s6
   11bac:	00040993          	mv	s3,s0
   11bb0:	00048b13          	mv	s6,s1
   11bb4:	00700f93          	li	t6,7
   11bb8:	03e12a23          	sw	t5,52(sp)
   11bbc:	05d12423          	sw	t4,72(sp)
   11bc0:	00412483          	lw	s1,4(sp)
   11bc4:	00068413          	mv	s0,a3
   11bc8:	00c0006f          	j	11bd4 <_vfprintf_r+0x1370>
   11bcc:	ff040413          	addi	s0,s0,-16
   11bd0:	048c5a63          	bge	s8,s0,11c24 <_vfprintf_r+0x13c0>
   11bd4:	01078793          	addi	a5,a5,16
   11bd8:	00170713          	addi	a4,a4,1
   11bdc:	01262023          	sw	s2,0(a2)
   11be0:	01862223          	sw	s8,4(a2)
   11be4:	0ef12623          	sw	a5,236(sp)
   11be8:	0ee12423          	sw	a4,232(sp)
   11bec:	00860613          	addi	a2,a2,8
   11bf0:	fcefdee3          	bge	t6,a4,11bcc <_vfprintf_r+0x1368>
   11bf4:	0e410613          	addi	a2,sp,228
   11bf8:	00048593          	mv	a1,s1
   11bfc:	000a8513          	mv	a0,s5
   11c00:	2e8100ef          	jal	ra,21ee8 <__sprint_r>
   11c04:	00050463          	beqz	a0,11c0c <_vfprintf_r+0x13a8>
   11c08:	f15fe06f          	j	10b1c <_vfprintf_r+0x2b8>
   11c0c:	ff040413          	addi	s0,s0,-16
   11c10:	0ec12783          	lw	a5,236(sp)
   11c14:	0e812703          	lw	a4,232(sp)
   11c18:	10c10613          	addi	a2,sp,268
   11c1c:	00700f93          	li	t6,7
   11c20:	fa8c4ae3          	blt	s8,s0,11bd4 <_vfprintf_r+0x1370>
   11c24:	00040693          	mv	a3,s0
   11c28:	03412f03          	lw	t5,52(sp)
   11c2c:	00098413          	mv	s0,s3
   11c30:	04812e83          	lw	t4,72(sp)
   11c34:	000a0993          	mv	s3,s4
   11c38:	000c8a13          	mv	s4,s9
   11c3c:	00090c93          	mv	s9,s2
   11c40:	04c12903          	lw	s2,76(sp)
   11c44:	000b0493          	mv	s1,s6
   11c48:	000b8b13          	mv	s6,s7
   11c4c:	000d0b93          	mv	s7,s10
   11c50:	000d8d13          	mv	s10,s11
   11c54:	00060d93          	mv	s11,a2
   11c58:	00d787b3          	add	a5,a5,a3
   11c5c:	00170713          	addi	a4,a4,1
   11c60:	00dda223          	sw	a3,4(s11)
   11c64:	019da023          	sw	s9,0(s11)
   11c68:	0ef12623          	sw	a5,236(sp)
   11c6c:	0ee12423          	sw	a4,232(sp)
   11c70:	00700693          	li	a3,7
   11c74:	008d8d93          	addi	s11,s11,8
   11c78:	aee6d663          	bge	a3,a4,10f64 <_vfprintf_r+0x700>
   11c7c:	00412583          	lw	a1,4(sp)
   11c80:	0e410613          	addi	a2,sp,228
   11c84:	000a8513          	mv	a0,s5
   11c88:	05d12423          	sw	t4,72(sp)
   11c8c:	03e12a23          	sw	t5,52(sp)
   11c90:	258100ef          	jal	ra,21ee8 <__sprint_r>
   11c94:	00050463          	beqz	a0,11c9c <_vfprintf_r+0x1438>
   11c98:	e85fe06f          	j	10b1c <_vfprintf_r+0x2b8>
   11c9c:	0ec12783          	lw	a5,236(sp)
   11ca0:	10c10d93          	addi	s11,sp,268
   11ca4:	04812e83          	lw	t4,72(sp)
   11ca8:	03412f03          	lw	t5,52(sp)
   11cac:	ab8ff06f          	j	10f64 <_vfprintf_r+0x700>
   11cb0:	00412583          	lw	a1,4(sp)
   11cb4:	0e410613          	addi	a2,sp,228
   11cb8:	000a8513          	mv	a0,s5
   11cbc:	03d12a23          	sw	t4,52(sp)
   11cc0:	228100ef          	jal	ra,21ee8 <__sprint_r>
   11cc4:	00050463          	beqz	a0,11ccc <_vfprintf_r+0x1468>
   11cc8:	e55fe06f          	j	10b1c <_vfprintf_r+0x2b8>
   11ccc:	0ec12783          	lw	a5,236(sp)
   11cd0:	10c10d93          	addi	s11,sp,268
   11cd4:	03412e83          	lw	t4,52(sp)
   11cd8:	af8ff06f          	j	10fd0 <_vfprintf_r+0x76c>
   11cdc:	0cc12683          	lw	a3,204(sp)
   11ce0:	42d05e63          	blez	a3,1211c <_vfprintf_r+0x18b8>
   11ce4:	01812703          	lw	a4,24(sp)
   11ce8:	01412683          	lw	a3,20(sp)
   11cec:	00070413          	mv	s0,a4
   11cf0:	28e6cc63          	blt	a3,a4,11f88 <_vfprintf_r+0x1724>
   11cf4:	02805663          	blez	s0,11d20 <_vfprintf_r+0x14bc>
   11cf8:	0e812703          	lw	a4,232(sp)
   11cfc:	008787b3          	add	a5,a5,s0
   11d00:	01ada023          	sw	s10,0(s11)
   11d04:	00170713          	addi	a4,a4,1
   11d08:	008da223          	sw	s0,4(s11)
   11d0c:	0ef12623          	sw	a5,236(sp)
   11d10:	0ee12423          	sw	a4,232(sp)
   11d14:	00700693          	li	a3,7
   11d18:	008d8d93          	addi	s11,s11,8
   11d1c:	1ee6cee3          	blt	a3,a4,12718 <_vfprintf_r+0x1eb4>
   11d20:	fff44713          	not	a4,s0
   11d24:	41f75713          	srai	a4,a4,0x1f
   11d28:	00e47433          	and	s0,s0,a4
   11d2c:	01412703          	lw	a4,20(sp)
   11d30:	40870433          	sub	s0,a4,s0
   11d34:	32804263          	bgtz	s0,12058 <_vfprintf_r+0x17f4>
   11d38:	01412683          	lw	a3,20(sp)
   11d3c:	4009f713          	andi	a4,s3,1024
   11d40:	00dd0b33          	add	s6,s10,a3
   11d44:	7c071663          	bnez	a4,12510 <_vfprintf_r+0x1cac>
   11d48:	0cc12403          	lw	s0,204(sp)
   11d4c:	01812703          	lw	a4,24(sp)
   11d50:	00e44663          	blt	s0,a4,11d5c <_vfprintf_r+0x14f8>
   11d54:	0019f713          	andi	a4,s3,1
   11d58:	1e0706e3          	beqz	a4,12744 <_vfprintf_r+0x1ee0>
   11d5c:	03012703          	lw	a4,48(sp)
   11d60:	02812683          	lw	a3,40(sp)
   11d64:	008d8d93          	addi	s11,s11,8
   11d68:	feedac23          	sw	a4,-8(s11)
   11d6c:	0e812703          	lw	a4,232(sp)
   11d70:	00d787b3          	add	a5,a5,a3
   11d74:	feddae23          	sw	a3,-4(s11)
   11d78:	00170713          	addi	a4,a4,1
   11d7c:	0ef12623          	sw	a5,236(sp)
   11d80:	0ee12423          	sw	a4,232(sp)
   11d84:	00700693          	li	a3,7
   11d88:	00e6d463          	bge	a3,a4,11d90 <_vfprintf_r+0x152c>
   11d8c:	0700106f          	j	12dfc <_vfprintf_r+0x2598>
   11d90:	01812683          	lw	a3,24(sp)
   11d94:	00dd0733          	add	a4,s10,a3
   11d98:	40868433          	sub	s0,a3,s0
   11d9c:	41670733          	sub	a4,a4,s6
   11da0:	00040b93          	mv	s7,s0
   11da4:	00875463          	bge	a4,s0,11dac <_vfprintf_r+0x1548>
   11da8:	00070b93          	mv	s7,a4
   11dac:	03705863          	blez	s7,11ddc <_vfprintf_r+0x1578>
   11db0:	0e812703          	lw	a4,232(sp)
   11db4:	017787b3          	add	a5,a5,s7
   11db8:	016da023          	sw	s6,0(s11)
   11dbc:	00170713          	addi	a4,a4,1
   11dc0:	017da223          	sw	s7,4(s11)
   11dc4:	0ef12623          	sw	a5,236(sp)
   11dc8:	0ee12423          	sw	a4,232(sp)
   11dcc:	00700693          	li	a3,7
   11dd0:	008d8d93          	addi	s11,s11,8
   11dd4:	00e6d463          	bge	a3,a4,11ddc <_vfprintf_r+0x1578>
   11dd8:	0ac0106f          	j	12e84 <_vfprintf_r+0x2620>
   11ddc:	fffbc713          	not	a4,s7
   11de0:	41f75713          	srai	a4,a4,0x1f
   11de4:	00ebfbb3          	and	s7,s7,a4
   11de8:	41740433          	sub	s0,s0,s7
   11dec:	a2805263          	blez	s0,11010 <_vfprintf_r+0x7ac>
   11df0:	0e812703          	lw	a4,232(sp)
   11df4:	4c8c5263          	bge	s8,s0,122b8 <_vfprintf_r+0x1a54>
   11df8:	00700b93          	li	s7,7
   11dfc:	00412b03          	lw	s6,4(sp)
   11e00:	00c0006f          	j	11e0c <_vfprintf_r+0x15a8>
   11e04:	ff040413          	addi	s0,s0,-16
   11e08:	4a8c5863          	bge	s8,s0,122b8 <_vfprintf_r+0x1a54>
   11e0c:	01078793          	addi	a5,a5,16
   11e10:	00170713          	addi	a4,a4,1
   11e14:	0001d697          	auipc	a3,0x1d
   11e18:	4d868693          	addi	a3,a3,1240 # 2f2ec <zeroes.4505>
   11e1c:	00dda023          	sw	a3,0(s11)
   11e20:	018da223          	sw	s8,4(s11)
   11e24:	0ef12623          	sw	a5,236(sp)
   11e28:	0ee12423          	sw	a4,232(sp)
   11e2c:	008d8d93          	addi	s11,s11,8
   11e30:	fcebdae3          	bge	s7,a4,11e04 <_vfprintf_r+0x15a0>
   11e34:	0e410613          	addi	a2,sp,228
   11e38:	000b0593          	mv	a1,s6
   11e3c:	000a8513          	mv	a0,s5
   11e40:	0a8100ef          	jal	ra,21ee8 <__sprint_r>
   11e44:	00050463          	beqz	a0,11e4c <_vfprintf_r+0x15e8>
   11e48:	cd5fe06f          	j	10b1c <_vfprintf_r+0x2b8>
   11e4c:	0ec12783          	lw	a5,236(sp)
   11e50:	0e812703          	lw	a4,232(sp)
   11e54:	10c10d93          	addi	s11,sp,268
   11e58:	fadff06f          	j	11e04 <_vfprintf_r+0x15a0>
   11e5c:	a4e05a63          	blez	a4,110b0 <_vfprintf_r+0x84c>
   11e60:	00ec4463          	blt	s8,a4,11e68 <_vfprintf_r+0x1604>
   11e64:	4880106f          	j	132ec <_vfprintf_r+0x2a88>
   11e68:	00700b13          	li	s6,7
   11e6c:	00070d93          	mv	s11,a4
   11e70:	00412d03          	lw	s10,4(sp)
   11e74:	00060413          	mv	s0,a2
   11e78:	0100006f          	j	11e88 <_vfprintf_r+0x1624>
   11e7c:	ff0d8d93          	addi	s11,s11,-16
   11e80:	11bc5a63          	bge	s8,s11,11f94 <_vfprintf_r+0x1730>
   11e84:	00140413          	addi	s0,s0,1
   11e88:	010c8c93          	addi	s9,s9,16
   11e8c:	0001d797          	auipc	a5,0x1d
   11e90:	46078793          	addi	a5,a5,1120 # 2f2ec <zeroes.4505>
   11e94:	00fba023          	sw	a5,0(s7)
   11e98:	018ba223          	sw	s8,4(s7)
   11e9c:	0f912623          	sw	s9,236(sp)
   11ea0:	0e812423          	sw	s0,232(sp)
   11ea4:	008b8b93          	addi	s7,s7,8
   11ea8:	fc8b5ae3          	bge	s6,s0,11e7c <_vfprintf_r+0x1618>
   11eac:	0e410613          	addi	a2,sp,228
   11eb0:	000d0593          	mv	a1,s10
   11eb4:	000a8513          	mv	a0,s5
   11eb8:	030100ef          	jal	ra,21ee8 <__sprint_r>
   11ebc:	00050463          	beqz	a0,11ec4 <_vfprintf_r+0x1660>
   11ec0:	c5dfe06f          	j	10b1c <_vfprintf_r+0x2b8>
   11ec4:	0ec12c83          	lw	s9,236(sp)
   11ec8:	0e812403          	lw	s0,232(sp)
   11ecc:	10c10b93          	addi	s7,sp,268
   11ed0:	fadff06f          	j	11e7c <_vfprintf_r+0x1618>
   11ed4:	03000793          	li	a5,48
   11ed8:	1af107a3          	sb	a5,431(sp)
   11edc:	1af10d13          	addi	s10,sp,431
   11ee0:	d21fe06f          	j	10c00 <_vfprintf_r+0x39c>
   11ee4:	2009f793          	andi	a5,s3,512
   11ee8:	0c0798e3          	bnez	a5,127b8 <_vfprintf_r+0x1f54>
   11eec:	00000b93          	li	s7,0
   11ef0:	cc5fe06f          	j	10bb4 <_vfprintf_r+0x350>
   11ef4:	00c12703          	lw	a4,12(sp)
   11ef8:	00072783          	lw	a5,0(a4)
   11efc:	00470713          	addi	a4,a4,4
   11f00:	00e12623          	sw	a4,12(sp)
   11f04:	0007a603          	lw	a2,0(a5)
   11f08:	0047a683          	lw	a3,4(a5)
   11f0c:	0087a703          	lw	a4,8(a5)
   11f10:	00c7a783          	lw	a5,12(a5)
   11f14:	0ec12823          	sw	a2,240(sp)
   11f18:	0ed12a23          	sw	a3,244(sp)
   11f1c:	0ee12c23          	sw	a4,248(sp)
   11f20:	0ef12e23          	sw	a5,252(sp)
   11f24:	ac4ff06f          	j	111e8 <_vfprintf_r+0x984>
   11f28:	03000713          	li	a4,48
   11f2c:	0029e993          	ori	s3,s3,2
   11f30:	0ce10423          	sb	a4,200(sp)
   11f34:	0c8104a3          	sb	s0,201(sp)
   11f38:	bff9fa13          	andi	s4,s3,-1025
   11f3c:	00200713          	li	a4,2
   11f40:	c91fe06f          	j	10bd0 <_vfprintf_r+0x36c>
   11f44:	00812603          	lw	a2,8(sp)
   11f48:	0006a783          	lw	a5,0(a3)
   11f4c:	00e12623          	sw	a4,12(sp)
   11f50:	41f65693          	srai	a3,a2,0x1f
   11f54:	00c7a023          	sw	a2,0(a5)
   11f58:	00d7a223          	sw	a3,4(a5)
   11f5c:	00090d13          	mv	s10,s2
   11f60:	e05fe06f          	j	10d64 <_vfprintf_r+0x500>
   11f64:	03c12783          	lw	a5,60(sp)
   11f68:	00094403          	lbu	s0,0(s2)
   11f6c:	00079463          	bnez	a5,11f74 <_vfprintf_r+0x1710>
   11f70:	aa9fe06f          	j	10a18 <_vfprintf_r+0x1b4>
   11f74:	0007c783          	lbu	a5,0(a5)
   11f78:	00079463          	bnez	a5,11f80 <_vfprintf_r+0x171c>
   11f7c:	a9dfe06f          	j	10a18 <_vfprintf_r+0x1b4>
   11f80:	4009e993          	ori	s3,s3,1024
   11f84:	a95fe06f          	j	10a18 <_vfprintf_r+0x1b4>
   11f88:	00068413          	mv	s0,a3
   11f8c:	d68046e3          	bgtz	s0,11cf8 <_vfprintf_r+0x1494>
   11f90:	d91ff06f          	j	11d20 <_vfprintf_r+0x14bc>
   11f94:	000d8713          	mv	a4,s11
   11f98:	00140b13          	addi	s6,s0,1
   11f9c:	008b8613          	addi	a2,s7,8
   11fa0:	00ec8cb3          	add	s9,s9,a4
   11fa4:	0001d797          	auipc	a5,0x1d
   11fa8:	34878793          	addi	a5,a5,840 # 2f2ec <zeroes.4505>
   11fac:	00eba223          	sw	a4,4(s7)
   11fb0:	00fba023          	sw	a5,0(s7)
   11fb4:	0f912623          	sw	s9,236(sp)
   11fb8:	0f612423          	sw	s6,232(sp)
   11fbc:	00700713          	li	a4,7
   11fc0:	71675a63          	bge	a4,s6,126d4 <_vfprintf_r+0x1e70>
   11fc4:	00412583          	lw	a1,4(sp)
   11fc8:	0e410613          	addi	a2,sp,228
   11fcc:	000a8513          	mv	a0,s5
   11fd0:	7190f0ef          	jal	ra,21ee8 <__sprint_r>
   11fd4:	00050463          	beqz	a0,11fdc <_vfprintf_r+0x1778>
   11fd8:	b45fe06f          	j	10b1c <_vfprintf_r+0x2b8>
   11fdc:	0e812683          	lw	a3,232(sp)
   11fe0:	0ec12c83          	lw	s9,236(sp)
   11fe4:	11410d93          	addi	s11,sp,276
   11fe8:	00168b13          	addi	s6,a3,1
   11fec:	10c10b93          	addi	s7,sp,268
   11ff0:	8c0ff06f          	j	110b0 <_vfprintf_r+0x84c>
   11ff4:	00412583          	lw	a1,4(sp)
   11ff8:	0e410613          	addi	a2,sp,228
   11ffc:	000a8513          	mv	a0,s5
   12000:	6e90f0ef          	jal	ra,21ee8 <__sprint_r>
   12004:	00050463          	beqz	a0,1200c <_vfprintf_r+0x17a8>
   12008:	b15fe06f          	j	10b1c <_vfprintf_r+0x2b8>
   1200c:	0ec12783          	lw	a5,236(sp)
   12010:	10c10d93          	addi	s11,sp,268
   12014:	81dff06f          	j	11830 <_vfprintf_r+0xfcc>
   12018:	00194403          	lbu	s0,1(s2)
   1201c:	2009e993          	ori	s3,s3,512
   12020:	00190913          	addi	s2,s2,1
   12024:	9f5fe06f          	j	10a18 <_vfprintf_r+0x1b4>
   12028:	00194403          	lbu	s0,1(s2)
   1202c:	0209e993          	ori	s3,s3,32
   12030:	00190913          	addi	s2,s2,1
   12034:	9e5fe06f          	j	10a18 <_vfprintf_r+0x1b4>
   12038:	00600793          	li	a5,6
   1203c:	000b0b93          	mv	s7,s6
   12040:	6f67ee63          	bltu	a5,s6,1273c <_vfprintf_r+0x1ed8>
   12044:	000b8a13          	mv	s4,s7
   12048:	01912623          	sw	s9,12(sp)
   1204c:	0001dd17          	auipc	s10,0x1d
   12050:	2e8d0d13          	addi	s10,s10,744 # 2f334 <zeroes.4505+0x48>
   12054:	eddfe06f          	j	10f30 <_vfprintf_r+0x6cc>
   12058:	0e812703          	lw	a4,232(sp)
   1205c:	468c5263          	bge	s8,s0,124c0 <_vfprintf_r+0x1c5c>
   12060:	00700b93          	li	s7,7
   12064:	00412b03          	lw	s6,4(sp)
   12068:	00c0006f          	j	12074 <_vfprintf_r+0x1810>
   1206c:	ff040413          	addi	s0,s0,-16
   12070:	448c5863          	bge	s8,s0,124c0 <_vfprintf_r+0x1c5c>
   12074:	01078793          	addi	a5,a5,16
   12078:	00170713          	addi	a4,a4,1
   1207c:	0001d697          	auipc	a3,0x1d
   12080:	27068693          	addi	a3,a3,624 # 2f2ec <zeroes.4505>
   12084:	00dda023          	sw	a3,0(s11)
   12088:	018da223          	sw	s8,4(s11)
   1208c:	0ef12623          	sw	a5,236(sp)
   12090:	0ee12423          	sw	a4,232(sp)
   12094:	008d8d93          	addi	s11,s11,8
   12098:	fcebdae3          	bge	s7,a4,1206c <_vfprintf_r+0x1808>
   1209c:	0e410613          	addi	a2,sp,228
   120a0:	000b0593          	mv	a1,s6
   120a4:	000a8513          	mv	a0,s5
   120a8:	6410f0ef          	jal	ra,21ee8 <__sprint_r>
   120ac:	00050463          	beqz	a0,120b4 <_vfprintf_r+0x1850>
   120b0:	a6dfe06f          	j	10b1c <_vfprintf_r+0x2b8>
   120b4:	0ec12783          	lw	a5,236(sp)
   120b8:	0e812703          	lw	a4,232(sp)
   120bc:	10c10d93          	addi	s11,sp,268
   120c0:	fadff06f          	j	1206c <_vfprintf_r+0x1808>
   120c4:	000d0493          	mv	s1,s10
   120c8:	931fe06f          	j	109f8 <_vfprintf_r+0x194>
   120cc:	00412583          	lw	a1,4(sp)
   120d0:	0e410613          	addi	a2,sp,228
   120d4:	000a8513          	mv	a0,s5
   120d8:	6110f0ef          	jal	ra,21ee8 <__sprint_r>
   120dc:	00050463          	beqz	a0,120e4 <_vfprintf_r+0x1880>
   120e0:	a3dfe06f          	j	10b1c <_vfprintf_r+0x2b8>
   120e4:	0ec12c83          	lw	s9,236(sp)
   120e8:	0e812403          	lw	s0,232(sp)
   120ec:	10c10b93          	addi	s7,sp,268
   120f0:	9c1ff06f          	j	11ab0 <_vfprintf_r+0x124c>
   120f4:	00412583          	lw	a1,4(sp)
   120f8:	0e410613          	addi	a2,sp,228
   120fc:	000a8513          	mv	a0,s5
   12100:	5e90f0ef          	jal	ra,21ee8 <__sprint_r>
   12104:	00050463          	beqz	a0,1210c <_vfprintf_r+0x18a8>
   12108:	a15fe06f          	j	10b1c <_vfprintf_r+0x2b8>
   1210c:	0ec12c83          	lw	s9,236(sp)
   12110:	0e812403          	lw	s0,232(sp)
   12114:	10c10b93          	addi	s7,sp,268
   12118:	9c5ff06f          	j	11adc <_vfprintf_r+0x1278>
   1211c:	0e812703          	lw	a4,232(sp)
   12120:	0001d617          	auipc	a2,0x1d
   12124:	21c60613          	addi	a2,a2,540 # 2f33c <zeroes.4505+0x50>
   12128:	00cda023          	sw	a2,0(s11)
   1212c:	00178793          	addi	a5,a5,1
   12130:	00100613          	li	a2,1
   12134:	00170713          	addi	a4,a4,1
   12138:	00cda223          	sw	a2,4(s11)
   1213c:	0ef12623          	sw	a5,236(sp)
   12140:	0ee12423          	sw	a4,232(sp)
   12144:	00700613          	li	a2,7
   12148:	008d8d93          	addi	s11,s11,8
   1214c:	58e64c63          	blt	a2,a4,126e4 <_vfprintf_r+0x1e80>
   12150:	22069a63          	bnez	a3,12384 <_vfprintf_r+0x1b20>
   12154:	01812683          	lw	a3,24(sp)
   12158:	0019f713          	andi	a4,s3,1
   1215c:	00d76733          	or	a4,a4,a3
   12160:	00071463          	bnez	a4,12168 <_vfprintf_r+0x1904>
   12164:	eadfe06f          	j	11010 <_vfprintf_r+0x7ac>
   12168:	03012703          	lw	a4,48(sp)
   1216c:	02812683          	lw	a3,40(sp)
   12170:	008d8893          	addi	a7,s11,8
   12174:	00eda023          	sw	a4,0(s11)
   12178:	0e812703          	lw	a4,232(sp)
   1217c:	00f687b3          	add	a5,a3,a5
   12180:	00dda223          	sw	a3,4(s11)
   12184:	00170713          	addi	a4,a4,1
   12188:	0ef12623          	sw	a5,236(sp)
   1218c:	0ee12423          	sw	a4,232(sp)
   12190:	00700693          	li	a3,7
   12194:	62e6cc63          	blt	a3,a4,127cc <_vfprintf_r+0x1f68>
   12198:	01812683          	lw	a3,24(sp)
   1219c:	00170713          	addi	a4,a4,1
   121a0:	01a8a023          	sw	s10,0(a7)
   121a4:	00f687b3          	add	a5,a3,a5
   121a8:	00d8a223          	sw	a3,4(a7)
   121ac:	0ef12623          	sw	a5,236(sp)
   121b0:	0ee12423          	sw	a4,232(sp)
   121b4:	00700693          	li	a3,7
   121b8:	00888d93          	addi	s11,a7,8
   121bc:	00e6c463          	blt	a3,a4,121c4 <_vfprintf_r+0x1960>
   121c0:	e51fe06f          	j	11010 <_vfprintf_r+0x7ac>
   121c4:	f11fe06f          	j	110d4 <_vfprintf_r+0x870>
   121c8:	1b010d13          	addi	s10,sp,432
   121cc:	00000793          	li	a5,0
   121d0:	400a7993          	andi	s3,s4,1024
   121d4:	01212823          	sw	s2,16(sp)
   121d8:	00812a23          	sw	s0,20(sp)
   121dc:	000d0913          	mv	s2,s10
   121e0:	00078413          	mv	s0,a5
   121e4:	000a8d13          	mv	s10,s5
   121e8:	000a0a93          	mv	s5,s4
   121ec:	000b8a13          	mv	s4,s7
   121f0:	000b0b93          	mv	s7,s6
   121f4:	00048b13          	mv	s6,s1
   121f8:	03c12483          	lw	s1,60(sp)
   121fc:	0240006f          	j	12220 <_vfprintf_r+0x19bc>
   12200:	00a00613          	li	a2,10
   12204:	00000693          	li	a3,0
   12208:	000c8513          	mv	a0,s9
   1220c:	000a0593          	mv	a1,s4
   12210:	698160ef          	jal	ra,288a8 <__udivdi3>
   12214:	2e0a0ce3          	beqz	s4,12d0c <_vfprintf_r+0x24a8>
   12218:	00050c93          	mv	s9,a0
   1221c:	00058a13          	mv	s4,a1
   12220:	00a00613          	li	a2,10
   12224:	00000693          	li	a3,0
   12228:	000c8513          	mv	a0,s9
   1222c:	000a0593          	mv	a1,s4
   12230:	44d160ef          	jal	ra,28e7c <__umoddi3>
   12234:	03050513          	addi	a0,a0,48
   12238:	fea90fa3          	sb	a0,-1(s2)
   1223c:	00140413          	addi	s0,s0,1
   12240:	fff90913          	addi	s2,s2,-1
   12244:	fa098ee3          	beqz	s3,12200 <_vfprintf_r+0x199c>
   12248:	0004c683          	lbu	a3,0(s1)
   1224c:	fad41ae3          	bne	s0,a3,12200 <_vfprintf_r+0x199c>
   12250:	0ff00793          	li	a5,255
   12254:	faf406e3          	beq	s0,a5,12200 <_vfprintf_r+0x199c>
   12258:	260a1ae3          	bnez	s4,12ccc <_vfprintf_r+0x2468>
   1225c:	00900793          	li	a5,9
   12260:	2797e6e3          	bltu	a5,s9,12ccc <_vfprintf_r+0x2468>
   12264:	000a8a13          	mv	s4,s5
   12268:	1b010793          	addi	a5,sp,432
   1226c:	000d0a93          	mv	s5,s10
   12270:	00090d13          	mv	s10,s2
   12274:	00812c23          	sw	s0,24(sp)
   12278:	02912e23          	sw	s1,60(sp)
   1227c:	01412403          	lw	s0,20(sp)
   12280:	000b0493          	mv	s1,s6
   12284:	01012903          	lw	s2,16(sp)
   12288:	000b8b13          	mv	s6,s7
   1228c:	000a0993          	mv	s3,s4
   12290:	41a78bb3          	sub	s7,a5,s10
   12294:	96dfe06f          	j	10c00 <_vfprintf_r+0x39c>
   12298:	00412583          	lw	a1,4(sp)
   1229c:	0e410613          	addi	a2,sp,228
   122a0:	000a8513          	mv	a0,s5
   122a4:	4450f0ef          	jal	ra,21ee8 <__sprint_r>
   122a8:	00050463          	beqz	a0,122b0 <_vfprintf_r+0x1a4c>
   122ac:	871fe06f          	j	10b1c <_vfprintf_r+0x2b8>
   122b0:	10c10d93          	addi	s11,sp,268
   122b4:	d2cff06f          	j	117e0 <_vfprintf_r+0xf7c>
   122b8:	0001d697          	auipc	a3,0x1d
   122bc:	03468693          	addi	a3,a3,52 # 2f2ec <zeroes.4505>
   122c0:	00dda023          	sw	a3,0(s11)
   122c4:	008da223          	sw	s0,4(s11)
   122c8:	008787b3          	add	a5,a5,s0
   122cc:	00170713          	addi	a4,a4,1
   122d0:	0ef12623          	sw	a5,236(sp)
   122d4:	0ee12423          	sw	a4,232(sp)
   122d8:	00700693          	li	a3,7
   122dc:	00e6c463          	blt	a3,a4,122e4 <_vfprintf_r+0x1a80>
   122e0:	d2dfe06f          	j	1100c <_vfprintf_r+0x7a8>
   122e4:	df1fe06f          	j	110d4 <_vfprintf_r+0x870>
   122e8:	0f012783          	lw	a5,240(sp)
   122ec:	0a010593          	addi	a1,sp,160
   122f0:	0b010513          	addi	a0,sp,176
   122f4:	0af12823          	sw	a5,176(sp)
   122f8:	0f412783          	lw	a5,244(sp)
   122fc:	0a012023          	sw	zero,160(sp)
   12300:	0a012223          	sw	zero,164(sp)
   12304:	0af12a23          	sw	a5,180(sp)
   12308:	0f812783          	lw	a5,248(sp)
   1230c:	0a012423          	sw	zero,168(sp)
   12310:	0a012623          	sw	zero,172(sp)
   12314:	0af12c23          	sw	a5,184(sp)
   12318:	0fc12783          	lw	a5,252(sp)
   1231c:	0af12e23          	sw	a5,188(sp)
   12320:	7cc190ef          	jal	ra,2baec <__letf2>
   12324:	2c0546e3          	bltz	a0,12df0 <_vfprintf_r+0x258c>
   12328:	0c714783          	lbu	a5,199(sp)
   1232c:	04700713          	li	a4,71
   12330:	0001dd17          	auipc	s10,0x1d
   12334:	fccd0d13          	addi	s10,s10,-52 # 2f2fc <zeroes.4505+0x10>
   12338:	3c874a63          	blt	a4,s0,1270c <_vfprintf_r+0x1ea8>
   1233c:	00012823          	sw	zero,16(sp)
   12340:	02012223          	sw	zero,36(sp)
   12344:	02012023          	sw	zero,32(sp)
   12348:	00012a23          	sw	zero,20(sp)
   1234c:	f7f9f993          	andi	s3,s3,-129
   12350:	00300a13          	li	s4,3
   12354:	00300b93          	li	s7,3
   12358:	00000b13          	li	s6,0
   1235c:	00078463          	beqz	a5,12364 <_vfprintf_r+0x1b00>
   12360:	8c5fe06f          	j	10c24 <_vfprintf_r+0x3c0>
   12364:	be1fe06f          	j	10f44 <_vfprintf_r+0x6e0>
   12368:	00c12783          	lw	a5,12(sp)
   1236c:	00090d13          	mv	s10,s2
   12370:	0007a783          	lw	a5,0(a5)
   12374:	00e12623          	sw	a4,12(sp)
   12378:	00812703          	lw	a4,8(sp)
   1237c:	00e7a023          	sw	a4,0(a5)
   12380:	9e5fe06f          	j	10d64 <_vfprintf_r+0x500>
   12384:	03012703          	lw	a4,48(sp)
   12388:	02812603          	lw	a2,40(sp)
   1238c:	008d8893          	addi	a7,s11,8
   12390:	00eda023          	sw	a4,0(s11)
   12394:	0e812703          	lw	a4,232(sp)
   12398:	00f607b3          	add	a5,a2,a5
   1239c:	00cda223          	sw	a2,4(s11)
   123a0:	00170713          	addi	a4,a4,1
   123a4:	0ef12623          	sw	a5,236(sp)
   123a8:	0ee12423          	sw	a4,232(sp)
   123ac:	00700613          	li	a2,7
   123b0:	40e64e63          	blt	a2,a4,127cc <_vfprintf_r+0x1f68>
   123b4:	de06d2e3          	bgez	a3,12198 <_vfprintf_r+0x1934>
   123b8:	ff000613          	li	a2,-16
   123bc:	40d00433          	neg	s0,a3
   123c0:	32c6d2e3          	bge	a3,a2,12ee4 <_vfprintf_r+0x2680>
   123c4:	00700b93          	li	s7,7
   123c8:	00412b03          	lw	s6,4(sp)
   123cc:	00c0006f          	j	123d8 <_vfprintf_r+0x1b74>
   123d0:	ff040413          	addi	s0,s0,-16
   123d4:	308c58e3          	bge	s8,s0,12ee4 <_vfprintf_r+0x2680>
   123d8:	01078793          	addi	a5,a5,16
   123dc:	00170713          	addi	a4,a4,1
   123e0:	0001d697          	auipc	a3,0x1d
   123e4:	f0c68693          	addi	a3,a3,-244 # 2f2ec <zeroes.4505>
   123e8:	00d8a023          	sw	a3,0(a7)
   123ec:	0188a223          	sw	s8,4(a7)
   123f0:	0ef12623          	sw	a5,236(sp)
   123f4:	0ee12423          	sw	a4,232(sp)
   123f8:	00888893          	addi	a7,a7,8
   123fc:	fcebdae3          	bge	s7,a4,123d0 <_vfprintf_r+0x1b6c>
   12400:	0e410613          	addi	a2,sp,228
   12404:	000b0593          	mv	a1,s6
   12408:	000a8513          	mv	a0,s5
   1240c:	2dd0f0ef          	jal	ra,21ee8 <__sprint_r>
   12410:	00050463          	beqz	a0,12418 <_vfprintf_r+0x1bb4>
   12414:	f08fe06f          	j	10b1c <_vfprintf_r+0x2b8>
   12418:	0ec12783          	lw	a5,236(sp)
   1241c:	0e812703          	lw	a4,232(sp)
   12420:	10c10893          	addi	a7,sp,268
   12424:	fadff06f          	j	123d0 <_vfprintf_r+0x1b6c>
   12428:	000d0513          	mv	a0,s10
   1242c:	59c0a0ef          	jal	ra,1c9c8 <strlen>
   12430:	00050b93          	mv	s7,a0
   12434:	a75fe06f          	j	10ea8 <_vfprintf_r+0x644>
   12438:	2009f793          	andi	a5,s3,512
   1243c:	36078063          	beqz	a5,1279c <_vfprintf_r+0x1f38>
   12440:	00c12783          	lw	a5,12(sp)
   12444:	00098a13          	mv	s4,s3
   12448:	00e12623          	sw	a4,12(sp)
   1244c:	00078c83          	lb	s9,0(a5)
   12450:	41fcdb93          	srai	s7,s9,0x1f
   12454:	000b8713          	mv	a4,s7
   12458:	9a1fe06f          	j	10df8 <_vfprintf_r+0x594>
   1245c:	2009f793          	andi	a5,s3,512
   12460:	32078863          	beqz	a5,12790 <_vfprintf_r+0x1f2c>
   12464:	0ffcfc93          	andi	s9,s9,255
   12468:	00000b93          	li	s7,0
   1246c:	00e12623          	sw	a4,12(sp)
   12470:	a5cff06f          	j	116cc <_vfprintf_r+0xe68>
   12474:	2009f793          	andi	a5,s3,512
   12478:	30078263          	beqz	a5,1277c <_vfprintf_r+0x1f18>
   1247c:	00e12623          	sw	a4,12(sp)
   12480:	0ffcfc93          	andi	s9,s9,255
   12484:	00000b93          	li	s7,0
   12488:	00098a13          	mv	s4,s3
   1248c:	00100713          	li	a4,1
   12490:	f40fe06f          	j	10bd0 <_vfprintf_r+0x36c>
   12494:	0fc12783          	lw	a5,252(sp)
   12498:	3207d663          	bgez	a5,127c4 <_vfprintf_r+0x1f60>
   1249c:	02d00793          	li	a5,45
   124a0:	0cf103a3          	sb	a5,199(sp)
   124a4:	04700713          	li	a4,71
   124a8:	0001dd17          	auipc	s10,0x1d
   124ac:	e5cd0d13          	addi	s10,s10,-420 # 2f304 <zeroes.4505+0x18>
   124b0:	e88756e3          	bge	a4,s0,1233c <_vfprintf_r+0x1ad8>
   124b4:	0001dd17          	auipc	s10,0x1d
   124b8:	e54d0d13          	addi	s10,s10,-428 # 2f308 <zeroes.4505+0x1c>
   124bc:	e81ff06f          	j	1233c <_vfprintf_r+0x1ad8>
   124c0:	0001d697          	auipc	a3,0x1d
   124c4:	e2c68693          	addi	a3,a3,-468 # 2f2ec <zeroes.4505>
   124c8:	008787b3          	add	a5,a5,s0
   124cc:	00170713          	addi	a4,a4,1
   124d0:	00dda023          	sw	a3,0(s11)
   124d4:	008da223          	sw	s0,4(s11)
   124d8:	0ef12623          	sw	a5,236(sp)
   124dc:	0ee12423          	sw	a4,232(sp)
   124e0:	00700693          	li	a3,7
   124e4:	008d8d93          	addi	s11,s11,8
   124e8:	84e6d8e3          	bge	a3,a4,11d38 <_vfprintf_r+0x14d4>
   124ec:	00412583          	lw	a1,4(sp)
   124f0:	0e410613          	addi	a2,sp,228
   124f4:	000a8513          	mv	a0,s5
   124f8:	1f10f0ef          	jal	ra,21ee8 <__sprint_r>
   124fc:	00050463          	beqz	a0,12504 <_vfprintf_r+0x1ca0>
   12500:	e1cfe06f          	j	10b1c <_vfprintf_r+0x2b8>
   12504:	0ec12783          	lw	a5,236(sp)
   12508:	10c10d93          	addi	s11,sp,268
   1250c:	82dff06f          	j	11d38 <_vfprintf_r+0x14d4>
   12510:	01812703          	lw	a4,24(sp)
   12514:	02012b83          	lw	s7,32(sp)
   12518:	01212a23          	sw	s2,20(sp)
   1251c:	00ed0433          	add	s0,s10,a4
   12520:	03312a23          	sw	s3,52(sp)
   12524:	04912423          	sw	s1,72(sp)
   12528:	02412903          	lw	s2,36(sp)
   1252c:	03412023          	sw	s4,32(sp)
   12530:	03a12223          	sw	s10,36(sp)
   12534:	00700c93          	li	s9,7
   12538:	00040d13          	mv	s10,s0
   1253c:	04012983          	lw	s3,64(sp)
   12540:	03c12483          	lw	s1,60(sp)
   12544:	000d8693          	mv	a3,s11
   12548:	00412a03          	lw	s4,4(sp)
   1254c:	04412403          	lw	s0,68(sp)
   12550:	080b8863          	beqz	s7,125e0 <_vfprintf_r+0x1d7c>
   12554:	08091863          	bnez	s2,125e4 <_vfprintf_r+0x1d80>
   12558:	fff48493          	addi	s1,s1,-1
   1255c:	fffb8b93          	addi	s7,s7,-1
   12560:	0e812703          	lw	a4,232(sp)
   12564:	013787b3          	add	a5,a5,s3
   12568:	0086a023          	sw	s0,0(a3)
   1256c:	00170713          	addi	a4,a4,1
   12570:	0136a223          	sw	s3,4(a3)
   12574:	0ef12623          	sw	a5,236(sp)
   12578:	0ee12423          	sw	a4,232(sp)
   1257c:	00868693          	addi	a3,a3,8
   12580:	10ecc463          	blt	s9,a4,12688 <_vfprintf_r+0x1e24>
   12584:	0004c603          	lbu	a2,0(s1)
   12588:	416d05b3          	sub	a1,s10,s6
   1258c:	00060d93          	mv	s11,a2
   12590:	00c5d463          	bge	a1,a2,12598 <_vfprintf_r+0x1d34>
   12594:	00058d93          	mv	s11,a1
   12598:	03b05663          	blez	s11,125c4 <_vfprintf_r+0x1d60>
   1259c:	0e812603          	lw	a2,232(sp)
   125a0:	01b787b3          	add	a5,a5,s11
   125a4:	0166a023          	sw	s6,0(a3)
   125a8:	00160613          	addi	a2,a2,1
   125ac:	01b6a223          	sw	s11,4(a3)
   125b0:	0ef12623          	sw	a5,236(sp)
   125b4:	0ec12423          	sw	a2,232(sp)
   125b8:	0eccca63          	blt	s9,a2,126ac <_vfprintf_r+0x1e48>
   125bc:	0004c603          	lbu	a2,0(s1)
   125c0:	00868693          	addi	a3,a3,8
   125c4:	fffdc593          	not	a1,s11
   125c8:	41f5d593          	srai	a1,a1,0x1f
   125cc:	00bdf733          	and	a4,s11,a1
   125d0:	40e60db3          	sub	s11,a2,a4
   125d4:	01b04c63          	bgtz	s11,125ec <_vfprintf_r+0x1d88>
   125d8:	00cb0b33          	add	s6,s6,a2
   125dc:	f60b9ce3          	bnez	s7,12554 <_vfprintf_r+0x1cf0>
   125e0:	5e090663          	beqz	s2,12bcc <_vfprintf_r+0x2368>
   125e4:	fff90913          	addi	s2,s2,-1
   125e8:	f79ff06f          	j	12560 <_vfprintf_r+0x1cfc>
   125ec:	0e812603          	lw	a2,232(sp)
   125f0:	01bc4863          	blt	s8,s11,12600 <_vfprintf_r+0x1d9c>
   125f4:	0600006f          	j	12654 <_vfprintf_r+0x1df0>
   125f8:	ff0d8d93          	addi	s11,s11,-16
   125fc:	05bc5c63          	bge	s8,s11,12654 <_vfprintf_r+0x1df0>
   12600:	01078793          	addi	a5,a5,16
   12604:	00160613          	addi	a2,a2,1
   12608:	0001d717          	auipc	a4,0x1d
   1260c:	ce470713          	addi	a4,a4,-796 # 2f2ec <zeroes.4505>
   12610:	00e6a023          	sw	a4,0(a3)
   12614:	0186a223          	sw	s8,4(a3)
   12618:	0ef12623          	sw	a5,236(sp)
   1261c:	0ec12423          	sw	a2,232(sp)
   12620:	00868693          	addi	a3,a3,8
   12624:	fcccdae3          	bge	s9,a2,125f8 <_vfprintf_r+0x1d94>
   12628:	0e410613          	addi	a2,sp,228
   1262c:	000a0593          	mv	a1,s4
   12630:	000a8513          	mv	a0,s5
   12634:	0b50f0ef          	jal	ra,21ee8 <__sprint_r>
   12638:	00050463          	beqz	a0,12640 <_vfprintf_r+0x1ddc>
   1263c:	ce0fe06f          	j	10b1c <_vfprintf_r+0x2b8>
   12640:	ff0d8d93          	addi	s11,s11,-16
   12644:	0ec12783          	lw	a5,236(sp)
   12648:	0e812603          	lw	a2,232(sp)
   1264c:	10c10693          	addi	a3,sp,268
   12650:	fbbc48e3          	blt	s8,s11,12600 <_vfprintf_r+0x1d9c>
   12654:	01b787b3          	add	a5,a5,s11
   12658:	00160613          	addi	a2,a2,1
   1265c:	0001d717          	auipc	a4,0x1d
   12660:	c9070713          	addi	a4,a4,-880 # 2f2ec <zeroes.4505>
   12664:	00e6a023          	sw	a4,0(a3)
   12668:	01b6a223          	sw	s11,4(a3)
   1266c:	0ef12623          	sw	a5,236(sp)
   12670:	0ec12423          	sw	a2,232(sp)
   12674:	62ccc663          	blt	s9,a2,12ca0 <_vfprintf_r+0x243c>
   12678:	0004c603          	lbu	a2,0(s1)
   1267c:	00868693          	addi	a3,a3,8
   12680:	00cb0b33          	add	s6,s6,a2
   12684:	f59ff06f          	j	125dc <_vfprintf_r+0x1d78>
   12688:	0e410613          	addi	a2,sp,228
   1268c:	000a0593          	mv	a1,s4
   12690:	000a8513          	mv	a0,s5
   12694:	0550f0ef          	jal	ra,21ee8 <__sprint_r>
   12698:	00050463          	beqz	a0,126a0 <_vfprintf_r+0x1e3c>
   1269c:	c80fe06f          	j	10b1c <_vfprintf_r+0x2b8>
   126a0:	0ec12783          	lw	a5,236(sp)
   126a4:	10c10693          	addi	a3,sp,268
   126a8:	eddff06f          	j	12584 <_vfprintf_r+0x1d20>
   126ac:	0e410613          	addi	a2,sp,228
   126b0:	000a0593          	mv	a1,s4
   126b4:	000a8513          	mv	a0,s5
   126b8:	0310f0ef          	jal	ra,21ee8 <__sprint_r>
   126bc:	00050463          	beqz	a0,126c4 <_vfprintf_r+0x1e60>
   126c0:	c5cfe06f          	j	10b1c <_vfprintf_r+0x2b8>
   126c4:	0004c603          	lbu	a2,0(s1)
   126c8:	0ec12783          	lw	a5,236(sp)
   126cc:	10c10693          	addi	a3,sp,268
   126d0:	ef5ff06f          	j	125c4 <_vfprintf_r+0x1d60>
   126d4:	001b0b13          	addi	s6,s6,1
   126d8:	00860d93          	addi	s11,a2,8
   126dc:	00060b93          	mv	s7,a2
   126e0:	9d1fe06f          	j	110b0 <_vfprintf_r+0x84c>
   126e4:	00412583          	lw	a1,4(sp)
   126e8:	0e410613          	addi	a2,sp,228
   126ec:	000a8513          	mv	a0,s5
   126f0:	7f80f0ef          	jal	ra,21ee8 <__sprint_r>
   126f4:	00050463          	beqz	a0,126fc <_vfprintf_r+0x1e98>
   126f8:	c24fe06f          	j	10b1c <_vfprintf_r+0x2b8>
   126fc:	0cc12683          	lw	a3,204(sp)
   12700:	0ec12783          	lw	a5,236(sp)
   12704:	10c10d93          	addi	s11,sp,268
   12708:	a49ff06f          	j	12150 <_vfprintf_r+0x18ec>
   1270c:	0001dd17          	auipc	s10,0x1d
   12710:	bf4d0d13          	addi	s10,s10,-1036 # 2f300 <zeroes.4505+0x14>
   12714:	c29ff06f          	j	1233c <_vfprintf_r+0x1ad8>
   12718:	00412583          	lw	a1,4(sp)
   1271c:	0e410613          	addi	a2,sp,228
   12720:	000a8513          	mv	a0,s5
   12724:	7c40f0ef          	jal	ra,21ee8 <__sprint_r>
   12728:	00050463          	beqz	a0,12730 <_vfprintf_r+0x1ecc>
   1272c:	bf0fe06f          	j	10b1c <_vfprintf_r+0x2b8>
   12730:	0ec12783          	lw	a5,236(sp)
   12734:	10c10d93          	addi	s11,sp,268
   12738:	de8ff06f          	j	11d20 <_vfprintf_r+0x14bc>
   1273c:	00600b93          	li	s7,6
   12740:	905ff06f          	j	12044 <_vfprintf_r+0x17e0>
   12744:	01812703          	lw	a4,24(sp)
   12748:	00ed0833          	add	a6,s10,a4
   1274c:	40870433          	sub	s0,a4,s0
   12750:	41680bb3          	sub	s7,a6,s6
   12754:	e9745463          	bge	s0,s7,11ddc <_vfprintf_r+0x1578>
   12758:	00040b93          	mv	s7,s0
   1275c:	e80ff06f          	j	11ddc <_vfprintf_r+0x1578>
   12760:	00c12783          	lw	a5,12(sp)
   12764:	00e12623          	sw	a4,12(sp)
   12768:	00812703          	lw	a4,8(sp)
   1276c:	0007a783          	lw	a5,0(a5)
   12770:	00090d13          	mv	s10,s2
   12774:	00e79023          	sh	a4,0(a5)
   12778:	decfe06f          	j	10d64 <_vfprintf_r+0x500>
   1277c:	00e12623          	sw	a4,12(sp)
   12780:	00000b93          	li	s7,0
   12784:	00098a13          	mv	s4,s3
   12788:	00100713          	li	a4,1
   1278c:	c44fe06f          	j	10bd0 <_vfprintf_r+0x36c>
   12790:	00000b93          	li	s7,0
   12794:	00e12623          	sw	a4,12(sp)
   12798:	f35fe06f          	j	116cc <_vfprintf_r+0xe68>
   1279c:	00c12783          	lw	a5,12(sp)
   127a0:	00098a13          	mv	s4,s3
   127a4:	00e12623          	sw	a4,12(sp)
   127a8:	0007ac83          	lw	s9,0(a5)
   127ac:	41fcdb93          	srai	s7,s9,0x1f
   127b0:	000b8713          	mv	a4,s7
   127b4:	e44fe06f          	j	10df8 <_vfprintf_r+0x594>
   127b8:	0ffcfc93          	andi	s9,s9,255
   127bc:	00000b93          	li	s7,0
   127c0:	bf4fe06f          	j	10bb4 <_vfprintf_r+0x350>
   127c4:	0c714783          	lbu	a5,199(sp)
   127c8:	cddff06f          	j	124a4 <_vfprintf_r+0x1c40>
   127cc:	00412583          	lw	a1,4(sp)
   127d0:	0e410613          	addi	a2,sp,228
   127d4:	000a8513          	mv	a0,s5
   127d8:	7100f0ef          	jal	ra,21ee8 <__sprint_r>
   127dc:	00050463          	beqz	a0,127e4 <_vfprintf_r+0x1f80>
   127e0:	b3cfe06f          	j	10b1c <_vfprintf_r+0x2b8>
   127e4:	0cc12683          	lw	a3,204(sp)
   127e8:	0ec12783          	lw	a5,236(sp)
   127ec:	0e812703          	lw	a4,232(sp)
   127f0:	10c10893          	addi	a7,sp,268
   127f4:	9a06d2e3          	bgez	a3,12198 <_vfprintf_r+0x1934>
   127f8:	bc1ff06f          	j	123b8 <_vfprintf_r+0x1b54>
   127fc:	03000793          	li	a5,48
   12800:	0cf10423          	sb	a5,200(sp)
   12804:	05800793          	li	a5,88
   12808:	0029e713          	ori	a4,s3,2
   1280c:	0cf104a3          	sb	a5,201(sp)
   12810:	04e12a23          	sw	a4,84(sp)
   12814:	06300793          	li	a5,99
   12818:	00012823          	sw	zero,16(sp)
   1281c:	14c10d13          	addi	s10,sp,332
   12820:	7b67c263          	blt	a5,s6,12fc4 <_vfprintf_r+0x2760>
   12824:	0fc12e03          	lw	t3,252(sp)
   12828:	fdf47793          	andi	a5,s0,-33
   1282c:	04f12423          	sw	a5,72(sp)
   12830:	04012e23          	sw	zero,92(sp)
   12834:	1029e993          	ori	s3,s3,258
   12838:	0f012e83          	lw	t4,240(sp)
   1283c:	0f412f03          	lw	t5,244(sp)
   12840:	0f812f83          	lw	t6,248(sp)
   12844:	440e4463          	bltz	t3,12c8c <_vfprintf_r+0x2428>
   12848:	06100793          	li	a5,97
   1284c:	0cf40ce3          	beq	s0,a5,13124 <_vfprintf_r+0x28c0>
   12850:	04100793          	li	a5,65
   12854:	00f40463          	beq	s0,a5,1285c <_vfprintf_r+0x1ff8>
   12858:	a19fe06f          	j	11270 <_vfprintf_r+0xa0c>
   1285c:	0b010b93          	addi	s7,sp,176
   12860:	000b8513          	mv	a0,s7
   12864:	0bd12823          	sw	t4,176(sp)
   12868:	0be12a23          	sw	t5,180(sp)
   1286c:	0bf12c23          	sw	t6,184(sp)
   12870:	0bc12e23          	sw	t3,188(sp)
   12874:	4201c0ef          	jal	ra,2ec94 <__trunctfdf2>
   12878:	0cc10613          	addi	a2,sp,204
   1287c:	42d090ef          	jal	ra,1c4a8 <frexp>
   12880:	00058613          	mv	a2,a1
   12884:	00050593          	mv	a1,a0
   12888:	000b8513          	mv	a0,s7
   1288c:	0801c0ef          	jal	ra,2e90c <__extenddftf2>
   12890:	09010793          	addi	a5,sp,144
   12894:	00078593          	mv	a1,a5
   12898:	00f12c23          	sw	a5,24(sp)
   1289c:	0b012783          	lw	a5,176(sp)
   128a0:	0a010a13          	addi	s4,sp,160
   128a4:	08010613          	addi	a2,sp,128
   128a8:	08f12823          	sw	a5,144(sp)
   128ac:	0b412783          	lw	a5,180(sp)
   128b0:	000a0513          	mv	a0,s4
   128b4:	04c12623          	sw	a2,76(sp)
   128b8:	08f12a23          	sw	a5,148(sp)
   128bc:	0b812783          	lw	a5,184(sp)
   128c0:	05412c23          	sw	s4,88(sp)
   128c4:	08012023          	sw	zero,128(sp)
   128c8:	08f12c23          	sw	a5,152(sp)
   128cc:	0bc12783          	lw	a5,188(sp)
   128d0:	08012223          	sw	zero,132(sp)
   128d4:	08012423          	sw	zero,136(sp)
   128d8:	08f12e23          	sw	a5,156(sp)
   128dc:	3ffc07b7          	lui	a5,0x3ffc0
   128e0:	08f12623          	sw	a5,140(sp)
   128e4:	34c190ef          	jal	ra,2bc30 <__multf3>
   128e8:	0a012683          	lw	a3,160(sp)
   128ec:	0a412e03          	lw	t3,164(sp)
   128f0:	0a812e83          	lw	t4,168(sp)
   128f4:	0ac12f03          	lw	t5,172(sp)
   128f8:	000a0593          	mv	a1,s4
   128fc:	000b8513          	mv	a0,s7
   12900:	0ad12823          	sw	a3,176(sp)
   12904:	02d12a23          	sw	a3,52(sp)
   12908:	0bc12a23          	sw	t3,180(sp)
   1290c:	03c12223          	sw	t3,36(sp)
   12910:	0bd12c23          	sw	t4,184(sp)
   12914:	03d12023          	sw	t4,32(sp)
   12918:	0be12e23          	sw	t5,188(sp)
   1291c:	01e12a23          	sw	t5,20(sp)
   12920:	0a012023          	sw	zero,160(sp)
   12924:	0a012223          	sw	zero,164(sp)
   12928:	0a012423          	sw	zero,168(sp)
   1292c:	0a012623          	sw	zero,172(sp)
   12930:	7ad180ef          	jal	ra,2b8dc <__eqtf2>
   12934:	01412f03          	lw	t5,20(sp)
   12938:	02012e83          	lw	t4,32(sp)
   1293c:	02412e03          	lw	t3,36(sp)
   12940:	03412683          	lw	a3,52(sp)
   12944:	00051663          	bnez	a0,12950 <_vfprintf_r+0x20ec>
   12948:	00100793          	li	a5,1
   1294c:	0cf12623          	sw	a5,204(sp)
   12950:	0001d797          	auipc	a5,0x1d
   12954:	9d078793          	addi	a5,a5,-1584 # 2f320 <zeroes.4505+0x34>
   12958:	02f12a23          	sw	a5,52(sp)
   1295c:	fffb0a13          	addi	s4,s6,-1
   12960:	01a12a23          	sw	s10,20(sp)
   12964:	000a0c93          	mv	s9,s4
   12968:	07212023          	sw	s2,96(sp)
   1296c:	06912623          	sw	s1,108(sp)
   12970:	07b12a23          	sw	s11,116(sp)
   12974:	07512c23          	sw	s5,120(sp)
   12978:	07a12e23          	sw	s10,124(sp)
   1297c:	06812223          	sw	s0,100(sp)
   12980:	07312423          	sw	s3,104(sp)
   12984:	07612823          	sw	s6,112(sp)
   12988:	00068d13          	mv	s10,a3
   1298c:	000e0d93          	mv	s11,t3
   12990:	000e8a13          	mv	s4,t4
   12994:	000f0a93          	mv	s5,t5
   12998:	01812903          	lw	s2,24(sp)
   1299c:	05812483          	lw	s1,88(sp)
   129a0:	0540006f          	j	129f4 <_vfprintf_r+0x2190>
   129a4:	00048593          	mv	a1,s1
   129a8:	000b8513          	mv	a0,s7
   129ac:	02c12223          	sw	a2,36(sp)
   129b0:	03f12023          	sw	t6,32(sp)
   129b4:	00512c23          	sw	t0,24(sp)
   129b8:	0a512a23          	sw	t0,180(sp)
   129bc:	0bf12c23          	sw	t6,184(sp)
   129c0:	0ac12e23          	sw	a2,188(sp)
   129c4:	0b312823          	sw	s3,176(sp)
   129c8:	0a012023          	sw	zero,160(sp)
   129cc:	0a012223          	sw	zero,164(sp)
   129d0:	0a012423          	sw	zero,168(sp)
   129d4:	0a012623          	sw	zero,172(sp)
   129d8:	705180ef          	jal	ra,2b8dc <__eqtf2>
   129dc:	fffc8c93          	addi	s9,s9,-1
   129e0:	01812283          	lw	t0,24(sp)
   129e4:	02012f83          	lw	t6,32(sp)
   129e8:	02412603          	lw	a2,36(sp)
   129ec:	0e050463          	beqz	a0,12ad4 <_vfprintf_r+0x2270>
   129f0:	01612a23          	sw	s6,20(sp)
   129f4:	400307b7          	lui	a5,0x40030
   129f8:	00090613          	mv	a2,s2
   129fc:	00048593          	mv	a1,s1
   12a00:	000b8513          	mv	a0,s7
   12a04:	08f12e23          	sw	a5,156(sp)
   12a08:	0ba12023          	sw	s10,160(sp)
   12a0c:	0bb12223          	sw	s11,164(sp)
   12a10:	0b412423          	sw	s4,168(sp)
   12a14:	0b512623          	sw	s5,172(sp)
   12a18:	08012823          	sw	zero,144(sp)
   12a1c:	08012a23          	sw	zero,148(sp)
   12a20:	08012c23          	sw	zero,152(sp)
   12a24:	20c190ef          	jal	ra,2bc30 <__multf3>
   12a28:	000b8513          	mv	a0,s7
   12a2c:	3111b0ef          	jal	ra,2e53c <__fixtfsi>
   12a30:	00050593          	mv	a1,a0
   12a34:	00050413          	mv	s0,a0
   12a38:	000b8513          	mv	a0,s7
   12a3c:	0b012b03          	lw	s6,176(sp)
   12a40:	0b412a03          	lw	s4,180(sp)
   12a44:	0b812983          	lw	s3,184(sp)
   12a48:	0bc12a83          	lw	s5,188(sp)
   12a4c:	4411b0ef          	jal	ra,2e68c <__floatsitf>
   12a50:	0b012703          	lw	a4,176(sp)
   12a54:	04c12603          	lw	a2,76(sp)
   12a58:	00090593          	mv	a1,s2
   12a5c:	08e12023          	sw	a4,128(sp)
   12a60:	0b412703          	lw	a4,180(sp)
   12a64:	00048513          	mv	a0,s1
   12a68:	09612823          	sw	s6,144(sp)
   12a6c:	08e12223          	sw	a4,132(sp)
   12a70:	0b812703          	lw	a4,184(sp)
   12a74:	09412a23          	sw	s4,148(sp)
   12a78:	09312c23          	sw	s3,152(sp)
   12a7c:	08e12423          	sw	a4,136(sp)
   12a80:	0bc12703          	lw	a4,188(sp)
   12a84:	09512e23          	sw	s5,156(sp)
   12a88:	08e12623          	sw	a4,140(sp)
   12a8c:	5101a0ef          	jal	ra,2cf9c <__subtf3>
   12a90:	03412783          	lw	a5,52(sp)
   12a94:	0a012983          	lw	s3,160(sp)
   12a98:	0a412283          	lw	t0,164(sp)
   12a9c:	00878733          	add	a4,a5,s0
   12aa0:	01412783          	lw	a5,20(sp)
   12aa4:	00074683          	lbu	a3,0(a4)
   12aa8:	0a812f83          	lw	t6,168(sp)
   12aac:	0ac12603          	lw	a2,172(sp)
   12ab0:	00178b13          	addi	s6,a5,1 # 40030001 <__BSS_END__+0x3fffe4ad>
   12ab4:	fedb0fa3          	sb	a3,-1(s6)
   12ab8:	05912823          	sw	s9,80(sp)
   12abc:	fff00793          	li	a5,-1
   12ac0:	00098d13          	mv	s10,s3
   12ac4:	00028d93          	mv	s11,t0
   12ac8:	000f8a13          	mv	s4,t6
   12acc:	00060a93          	mv	s5,a2
   12ad0:	ecfc9ae3          	bne	s9,a5,129a4 <_vfprintf_r+0x2140>
   12ad4:	05812a03          	lw	s4,88(sp)
   12ad8:	00098393          	mv	t2,s3
   12adc:	3ffe0737          	lui	a4,0x3ffe0
   12ae0:	000a0593          	mv	a1,s4
   12ae4:	000b8513          	mv	a0,s7
   12ae8:	06012903          	lw	s2,96(sp)
   12aec:	00812c23          	sw	s0,24(sp)
   12af0:	000b0c93          	mv	s9,s6
   12af4:	06c12483          	lw	s1,108(sp)
   12af8:	07412d83          	lw	s11,116(sp)
   12afc:	06412403          	lw	s0,100(sp)
   12b00:	07012b03          	lw	s6,112(sp)
   12b04:	07812a83          	lw	s5,120(sp)
   12b08:	07c12d03          	lw	s10,124(sp)
   12b0c:	06812983          	lw	s3,104(sp)
   12b10:	0a712823          	sw	t2,176(sp)
   12b14:	06712023          	sw	t2,96(sp)
   12b18:	0a512a23          	sw	t0,180(sp)
   12b1c:	04512623          	sw	t0,76(sp)
   12b20:	0bf12c23          	sw	t6,184(sp)
   12b24:	03f12223          	sw	t6,36(sp)
   12b28:	0ac12e23          	sw	a2,188(sp)
   12b2c:	02c12023          	sw	a2,32(sp)
   12b30:	0a012023          	sw	zero,160(sp)
   12b34:	0a012223          	sw	zero,164(sp)
   12b38:	0a012423          	sw	zero,168(sp)
   12b3c:	0ae12623          	sw	a4,172(sp)
   12b40:	669180ef          	jal	ra,2b9a8 <__getf2>
   12b44:	48a04e63          	bgtz	a0,12fe0 <_vfprintf_r+0x277c>
   12b48:	06012383          	lw	t2,96(sp)
   12b4c:	04c12283          	lw	t0,76(sp)
   12b50:	02412f83          	lw	t6,36(sp)
   12b54:	02012603          	lw	a2,32(sp)
   12b58:	3ffe0737          	lui	a4,0x3ffe0
   12b5c:	000a0593          	mv	a1,s4
   12b60:	000b8513          	mv	a0,s7
   12b64:	0a712823          	sw	t2,176(sp)
   12b68:	0a512a23          	sw	t0,180(sp)
   12b6c:	0bf12c23          	sw	t6,184(sp)
   12b70:	0ac12e23          	sw	a2,188(sp)
   12b74:	0a012023          	sw	zero,160(sp)
   12b78:	0a012223          	sw	zero,164(sp)
   12b7c:	0a012423          	sw	zero,168(sp)
   12b80:	0ae12623          	sw	a4,172(sp)
   12b84:	559180ef          	jal	ra,2b8dc <__eqtf2>
   12b88:	00051863          	bnez	a0,12b98 <_vfprintf_r+0x2334>
   12b8c:	01812783          	lw	a5,24(sp)
   12b90:	0017fa13          	andi	s4,a5,1
   12b94:	440a1663          	bnez	s4,12fe0 <_vfprintf_r+0x277c>
   12b98:	05012783          	lw	a5,80(sp)
   12b9c:	03000693          	li	a3,48
   12ba0:	00178713          	addi	a4,a5,1
   12ba4:	00ec8733          	add	a4,s9,a4
   12ba8:	0007c863          	bltz	a5,12bb8 <_vfprintf_r+0x2354>
   12bac:	001c8c93          	addi	s9,s9,1
   12bb0:	fedc8fa3          	sb	a3,-1(s9)
   12bb4:	ff971ce3          	bne	a4,s9,12bac <_vfprintf_r+0x2348>
   12bb8:	41ac87b3          	sub	a5,s9,s10
   12bbc:	00f12c23          	sw	a5,24(sp)
   12bc0:	f50fe06f          	j	11310 <_vfprintf_r+0xaac>
   12bc4:	00098a13          	mv	s4,s3
   12bc8:	b21fe06f          	j	116e8 <_vfprintf_r+0xe84>
   12bcc:	02412d03          	lw	s10,36(sp)
   12bd0:	01812703          	lw	a4,24(sp)
   12bd4:	02912e23          	sw	s1,60(sp)
   12bd8:	01412903          	lw	s2,20(sp)
   12bdc:	00ed0733          	add	a4,s10,a4
   12be0:	03412983          	lw	s3,52(sp)
   12be4:	04812483          	lw	s1,72(sp)
   12be8:	02012a03          	lw	s4,32(sp)
   12bec:	00068d93          	mv	s11,a3
   12bf0:	95677c63          	bgeu	a4,s6,11d48 <_vfprintf_r+0x14e4>
   12bf4:	00070b13          	mv	s6,a4
   12bf8:	950ff06f          	j	11d48 <_vfprintf_r+0x14e4>
   12bfc:	01412703          	lw	a4,20(sp)
   12c00:	ffd00793          	li	a5,-3
   12c04:	00f74463          	blt	a4,a5,12c0c <_vfprintf_r+0x23a8>
   12c08:	00eb5a63          	bge	s6,a4,12c1c <_vfprintf_r+0x23b8>
   12c0c:	ffe40413          	addi	s0,s0,-2
   12c10:	fdf47793          	andi	a5,s0,-33
   12c14:	04f12423          	sw	a5,72(sp)
   12c18:	f20fe06f          	j	11338 <_vfprintf_r+0xad4>
   12c1c:	01812783          	lw	a5,24(sp)
   12c20:	01412703          	lw	a4,20(sp)
   12c24:	22f74663          	blt	a4,a5,12e50 <_vfprintf_r+0x25ec>
   12c28:	05412783          	lw	a5,84(sp)
   12c2c:	00070b93          	mv	s7,a4
   12c30:	0017f793          	andi	a5,a5,1
   12c34:	00078663          	beqz	a5,12c40 <_vfprintf_r+0x23dc>
   12c38:	02812783          	lw	a5,40(sp)
   12c3c:	00f70bb3          	add	s7,a4,a5
   12c40:	05412783          	lw	a5,84(sp)
   12c44:	4007f793          	andi	a5,a5,1024
   12c48:	00078663          	beqz	a5,12c54 <_vfprintf_r+0x23f0>
   12c4c:	01412783          	lw	a5,20(sp)
   12c50:	40f04463          	bgtz	a5,13058 <_vfprintf_r+0x27f4>
   12c54:	fffbca13          	not	s4,s7
   12c58:	41fa5a13          	srai	s4,s4,0x1f
   12c5c:	014bfa33          	and	s4,s7,s4
   12c60:	06700413          	li	s0,103
   12c64:	02012223          	sw	zero,36(sp)
   12c68:	02012023          	sw	zero,32(sp)
   12c6c:	ff8fe06f          	j	11464 <_vfprintf_r+0xc00>
   12c70:	0c714783          	lbu	a5,199(sp)
   12c74:	00000b13          	li	s6,0
   12c78:	00078463          	beqz	a5,12c80 <_vfprintf_r+0x241c>
   12c7c:	fa9fd06f          	j	10c24 <_vfprintf_r+0x3c0>
   12c80:	ac4fe06f          	j	10f44 <_vfprintf_r+0x6e0>
   12c84:	00012823          	sw	zero,16(sp)
   12c88:	00078993          	mv	s3,a5
   12c8c:	800007b7          	lui	a5,0x80000
   12c90:	01c7ce33          	xor	t3,a5,t3
   12c94:	02d00793          	li	a5,45
   12c98:	04f12e23          	sw	a5,92(sp)
   12c9c:	badff06f          	j	12848 <_vfprintf_r+0x1fe4>
   12ca0:	0e410613          	addi	a2,sp,228
   12ca4:	000a0593          	mv	a1,s4
   12ca8:	000a8513          	mv	a0,s5
   12cac:	23c0f0ef          	jal	ra,21ee8 <__sprint_r>
   12cb0:	00050463          	beqz	a0,12cb8 <_vfprintf_r+0x2454>
   12cb4:	e69fd06f          	j	10b1c <_vfprintf_r+0x2b8>
   12cb8:	0004c603          	lbu	a2,0(s1)
   12cbc:	0ec12783          	lw	a5,236(sp)
   12cc0:	10c10693          	addi	a3,sp,268
   12cc4:	00cb0b33          	add	s6,s6,a2
   12cc8:	915ff06f          	j	125dc <_vfprintf_r+0x1d78>
   12ccc:	04012783          	lw	a5,64(sp)
   12cd0:	04412583          	lw	a1,68(sp)
   12cd4:	00000413          	li	s0,0
   12cd8:	40f90933          	sub	s2,s2,a5
   12cdc:	00078613          	mv	a2,a5
   12ce0:	00090513          	mv	a0,s2
   12ce4:	571090ef          	jal	ra,1ca54 <strncpy>
   12ce8:	0014c803          	lbu	a6,1(s1)
   12cec:	00a00613          	li	a2,10
   12cf0:	00000693          	li	a3,0
   12cf4:	01003833          	snez	a6,a6
   12cf8:	000c8513          	mv	a0,s9
   12cfc:	000a0593          	mv	a1,s4
   12d00:	010484b3          	add	s1,s1,a6
   12d04:	3a5150ef          	jal	ra,288a8 <__udivdi3>
   12d08:	d10ff06f          	j	12218 <_vfprintf_r+0x19b4>
   12d0c:	00900793          	li	a5,9
   12d10:	d197e463          	bltu	a5,s9,12218 <_vfprintf_r+0x19b4>
   12d14:	d50ff06f          	j	12264 <_vfprintf_r+0x1a00>
   12d18:	0b010b93          	addi	s7,sp,176
   12d1c:	0d010793          	addi	a5,sp,208
   12d20:	0cc10713          	addi	a4,sp,204
   12d24:	0dc10813          	addi	a6,sp,220
   12d28:	000b0693          	mv	a3,s6
   12d2c:	00300613          	li	a2,3
   12d30:	000b8593          	mv	a1,s7
   12d34:	000a8513          	mv	a0,s5
   12d38:	0bd12823          	sw	t4,176(sp)
   12d3c:	03d12223          	sw	t4,36(sp)
   12d40:	0be12a23          	sw	t5,180(sp)
   12d44:	03e12023          	sw	t5,32(sp)
   12d48:	0bf12c23          	sw	t6,184(sp)
   12d4c:	01f12c23          	sw	t6,24(sp)
   12d50:	0bc12e23          	sw	t3,188(sp)
   12d54:	01c12a23          	sw	t3,20(sp)
   12d58:	405050ef          	jal	ra,1895c <_ldtoa_r>
   12d5c:	00054703          	lbu	a4,0(a0)
   12d60:	03000793          	li	a5,48
   12d64:	00050d13          	mv	s10,a0
   12d68:	01412e03          	lw	t3,20(sp)
   12d6c:	01812f83          	lw	t6,24(sp)
   12d70:	02012f03          	lw	t5,32(sp)
   12d74:	02412e83          	lw	t4,36(sp)
   12d78:	4cf70263          	beq	a4,a5,1323c <_vfprintf_r+0x29d8>
   12d7c:	0a010793          	addi	a5,sp,160
   12d80:	04f12c23          	sw	a5,88(sp)
   12d84:	0cc12783          	lw	a5,204(sp)
   12d88:	016787b3          	add	a5,a5,s6
   12d8c:	00fd0a33          	add	s4,s10,a5
   12d90:	05812583          	lw	a1,88(sp)
   12d94:	000b8513          	mv	a0,s7
   12d98:	0bd12823          	sw	t4,176(sp)
   12d9c:	0be12a23          	sw	t5,180(sp)
   12da0:	0bf12c23          	sw	t6,184(sp)
   12da4:	0bc12e23          	sw	t3,188(sp)
   12da8:	0a012023          	sw	zero,160(sp)
   12dac:	0a012223          	sw	zero,164(sp)
   12db0:	0a012423          	sw	zero,168(sp)
   12db4:	0a012623          	sw	zero,172(sp)
   12db8:	325180ef          	jal	ra,2b8dc <__eqtf2>
   12dbc:	000a0793          	mv	a5,s4
   12dc0:	00051463          	bnez	a0,12dc8 <_vfprintf_r+0x2564>
   12dc4:	d44fe06f          	j	11308 <_vfprintf_r+0xaa4>
   12dc8:	0dc12783          	lw	a5,220(sp)
   12dcc:	03000693          	li	a3,48
   12dd0:	0147e463          	bltu	a5,s4,12dd8 <_vfprintf_r+0x2574>
   12dd4:	d34fe06f          	j	11308 <_vfprintf_r+0xaa4>
   12dd8:	00178713          	addi	a4,a5,1 # 80000001 <__BSS_END__+0x7ffce4ad>
   12ddc:	0ce12e23          	sw	a4,220(sp)
   12de0:	00d78023          	sb	a3,0(a5)
   12de4:	0dc12783          	lw	a5,220(sp)
   12de8:	ff47e8e3          	bltu	a5,s4,12dd8 <_vfprintf_r+0x2574>
   12dec:	d1cfe06f          	j	11308 <_vfprintf_r+0xaa4>
   12df0:	02d00793          	li	a5,45
   12df4:	0cf103a3          	sb	a5,199(sp)
   12df8:	d34ff06f          	j	1232c <_vfprintf_r+0x1ac8>
   12dfc:	00412583          	lw	a1,4(sp)
   12e00:	0e410613          	addi	a2,sp,228
   12e04:	000a8513          	mv	a0,s5
   12e08:	0e00f0ef          	jal	ra,21ee8 <__sprint_r>
   12e0c:	00050463          	beqz	a0,12e14 <_vfprintf_r+0x25b0>
   12e10:	d0dfd06f          	j	10b1c <_vfprintf_r+0x2b8>
   12e14:	0cc12403          	lw	s0,204(sp)
   12e18:	0ec12783          	lw	a5,236(sp)
   12e1c:	10c10d93          	addi	s11,sp,268
   12e20:	f71fe06f          	j	11d90 <_vfprintf_r+0x152c>
   12e24:	0c714783          	lbu	a5,199(sp)
   12e28:	01912623          	sw	s9,12(sp)
   12e2c:	02012223          	sw	zero,36(sp)
   12e30:	02012023          	sw	zero,32(sp)
   12e34:	00012a23          	sw	zero,20(sp)
   12e38:	000b0a13          	mv	s4,s6
   12e3c:	000b0b93          	mv	s7,s6
   12e40:	00000b13          	li	s6,0
   12e44:	00078463          	beqz	a5,12e4c <_vfprintf_r+0x25e8>
   12e48:	dddfd06f          	j	10c24 <_vfprintf_r+0x3c0>
   12e4c:	8f8fe06f          	j	10f44 <_vfprintf_r+0x6e0>
   12e50:	01812783          	lw	a5,24(sp)
   12e54:	02812703          	lw	a4,40(sp)
   12e58:	06700413          	li	s0,103
   12e5c:	00e78bb3          	add	s7,a5,a4
   12e60:	01412783          	lw	a5,20(sp)
   12e64:	42f05e63          	blez	a5,132a0 <_vfprintf_r+0x2a3c>
   12e68:	05412783          	lw	a5,84(sp)
   12e6c:	4007f793          	andi	a5,a5,1024
   12e70:	1e079663          	bnez	a5,1305c <_vfprintf_r+0x27f8>
   12e74:	fffbca13          	not	s4,s7
   12e78:	41fa5a13          	srai	s4,s4,0x1f
   12e7c:	014bfa33          	and	s4,s7,s4
   12e80:	de5ff06f          	j	12c64 <_vfprintf_r+0x2400>
   12e84:	00412583          	lw	a1,4(sp)
   12e88:	0e410613          	addi	a2,sp,228
   12e8c:	000a8513          	mv	a0,s5
   12e90:	0580f0ef          	jal	ra,21ee8 <__sprint_r>
   12e94:	00050463          	beqz	a0,12e9c <_vfprintf_r+0x2638>
   12e98:	c85fd06f          	j	10b1c <_vfprintf_r+0x2b8>
   12e9c:	0cc12403          	lw	s0,204(sp)
   12ea0:	01812703          	lw	a4,24(sp)
   12ea4:	0ec12783          	lw	a5,236(sp)
   12ea8:	10c10d93          	addi	s11,sp,268
   12eac:	40870433          	sub	s0,a4,s0
   12eb0:	f2dfe06f          	j	11ddc <_vfprintf_r+0x1578>
   12eb4:	05412783          	lw	a5,84(sp)
   12eb8:	01412703          	lw	a4,20(sp)
   12ebc:	0017f793          	andi	a5,a5,1
   12ec0:	0167e7b3          	or	a5,a5,s6
   12ec4:	3ee05a63          	blez	a4,132b8 <_vfprintf_r+0x2a54>
   12ec8:	24079463          	bnez	a5,13110 <_vfprintf_r+0x28ac>
   12ecc:	01412b83          	lw	s7,20(sp)
   12ed0:	06600413          	li	s0,102
   12ed4:	f95ff06f          	j	12e68 <_vfprintf_r+0x2604>
   12ed8:	fff00793          	li	a5,-1
   12edc:	00f12423          	sw	a5,8(sp)
   12ee0:	c65fd06f          	j	10b44 <_vfprintf_r+0x2e0>
   12ee4:	0001c697          	auipc	a3,0x1c
   12ee8:	40868693          	addi	a3,a3,1032 # 2f2ec <zeroes.4505>
   12eec:	008787b3          	add	a5,a5,s0
   12ef0:	00170713          	addi	a4,a4,1 # 3ffe0001 <__BSS_END__+0x3ffae4ad>
   12ef4:	00d8a023          	sw	a3,0(a7)
   12ef8:	0088a223          	sw	s0,4(a7)
   12efc:	0ef12623          	sw	a5,236(sp)
   12f00:	0ee12423          	sw	a4,232(sp)
   12f04:	00700693          	li	a3,7
   12f08:	00888893          	addi	a7,a7,8
   12f0c:	a8e6d663          	bge	a3,a4,12198 <_vfprintf_r+0x1934>
   12f10:	00412583          	lw	a1,4(sp)
   12f14:	0e410613          	addi	a2,sp,228
   12f18:	000a8513          	mv	a0,s5
   12f1c:	7cd0e0ef          	jal	ra,21ee8 <__sprint_r>
   12f20:	00050463          	beqz	a0,12f28 <_vfprintf_r+0x26c4>
   12f24:	bf9fd06f          	j	10b1c <_vfprintf_r+0x2b8>
   12f28:	0ec12783          	lw	a5,236(sp)
   12f2c:	0e812703          	lw	a4,232(sp)
   12f30:	10c10893          	addi	a7,sp,268
   12f34:	a64ff06f          	j	12198 <_vfprintf_r+0x1934>
   12f38:	0a010793          	addi	a5,sp,160
   12f3c:	016d0a33          	add	s4,s10,s6
   12f40:	04f12c23          	sw	a5,88(sp)
   12f44:	e4dff06f          	j	12d90 <_vfprintf_r+0x252c>
   12f48:	001b0a13          	addi	s4,s6,1
   12f4c:	0b010b93          	addi	s7,sp,176
   12f50:	0dc10813          	addi	a6,sp,220
   12f54:	0d010793          	addi	a5,sp,208
   12f58:	0cc10713          	addi	a4,sp,204
   12f5c:	000a0693          	mv	a3,s4
   12f60:	00200613          	li	a2,2
   12f64:	000b8593          	mv	a1,s7
   12f68:	000a8513          	mv	a0,s5
   12f6c:	0bd12823          	sw	t4,176(sp)
   12f70:	03d12223          	sw	t4,36(sp)
   12f74:	0be12a23          	sw	t5,180(sp)
   12f78:	03e12023          	sw	t5,32(sp)
   12f7c:	0bf12c23          	sw	t6,184(sp)
   12f80:	01f12c23          	sw	t6,24(sp)
   12f84:	0bc12e23          	sw	t3,188(sp)
   12f88:	01c12a23          	sw	t3,20(sp)
   12f8c:	1d1050ef          	jal	ra,1895c <_ldtoa_r>
   12f90:	01412e03          	lw	t3,20(sp)
   12f94:	01812f83          	lw	t6,24(sp)
   12f98:	02012f03          	lw	t5,32(sp)
   12f9c:	02412e83          	lw	t4,36(sp)
   12fa0:	00050d13          	mv	s10,a0
   12fa4:	0a010793          	addi	a5,sp,160
   12fa8:	014d0a33          	add	s4,s10,s4
   12fac:	04f12c23          	sw	a5,88(sp)
   12fb0:	de1ff06f          	j	12d90 <_vfprintf_r+0x252c>
   12fb4:	03000793          	li	a5,48
   12fb8:	0cf10423          	sb	a5,200(sp)
   12fbc:	07800793          	li	a5,120
   12fc0:	849ff06f          	j	12808 <_vfprintf_r+0x1fa4>
   12fc4:	001b0593          	addi	a1,s6,1
   12fc8:	000a8513          	mv	a0,s5
   12fcc:	7a9060ef          	jal	ra,19f74 <_malloc_r>
   12fd0:	00050d13          	mv	s10,a0
   12fd4:	34050c63          	beqz	a0,1332c <_vfprintf_r+0x2ac8>
   12fd8:	00a12823          	sw	a0,16(sp)
   12fdc:	849ff06f          	j	12824 <_vfprintf_r+0x1fc0>
   12fe0:	01412783          	lw	a5,20(sp)
   12fe4:	000c8713          	mv	a4,s9
   12fe8:	0cf12e23          	sw	a5,220(sp)
   12fec:	03412783          	lw	a5,52(sp)
   12ff0:	fffcc683          	lbu	a3,-1(s9)
   12ff4:	00f7c603          	lbu	a2,15(a5)
   12ff8:	02d61063          	bne	a2,a3,13018 <_vfprintf_r+0x27b4>
   12ffc:	03000593          	li	a1,48
   13000:	feb70fa3          	sb	a1,-1(a4)
   13004:	0dc12703          	lw	a4,220(sp)
   13008:	fff70793          	addi	a5,a4,-1
   1300c:	0cf12e23          	sw	a5,220(sp)
   13010:	fff74683          	lbu	a3,-1(a4)
   13014:	fed606e3          	beq	a2,a3,13000 <_vfprintf_r+0x279c>
   13018:	00168613          	addi	a2,a3,1
   1301c:	03900593          	li	a1,57
   13020:	0ff67613          	andi	a2,a2,255
   13024:	00b68663          	beq	a3,a1,13030 <_vfprintf_r+0x27cc>
   13028:	fec70fa3          	sb	a2,-1(a4)
   1302c:	b8dff06f          	j	12bb8 <_vfprintf_r+0x2354>
   13030:	03412783          	lw	a5,52(sp)
   13034:	00a7c603          	lbu	a2,10(a5)
   13038:	fec70fa3          	sb	a2,-1(a4)
   1303c:	b7dff06f          	j	12bb8 <_vfprintf_r+0x2354>
   13040:	000b0463          	beqz	s6,13048 <_vfprintf_r+0x27e4>
   13044:	a00fe06f          	j	11244 <_vfprintf_r+0x9e0>
   13048:	00100b13          	li	s6,1
   1304c:	9f8fe06f          	j	11244 <_vfprintf_r+0x9e0>
   13050:	00600b13          	li	s6,6
   13054:	9f0fe06f          	j	11244 <_vfprintf_r+0x9e0>
   13058:	06700413          	li	s0,103
   1305c:	03c12583          	lw	a1,60(sp)
   13060:	01412703          	lw	a4,20(sp)
   13064:	02012223          	sw	zero,36(sp)
   13068:	0005c783          	lbu	a5,0(a1)
   1306c:	02012023          	sw	zero,32(sp)
   13070:	0ff00693          	li	a3,255
   13074:	02d78e63          	beq	a5,a3,130b0 <_vfprintf_r+0x284c>
   13078:	02e7dc63          	bge	a5,a4,130b0 <_vfprintf_r+0x284c>
   1307c:	0015c603          	lbu	a2,1(a1)
   13080:	40f70733          	sub	a4,a4,a5
   13084:	00060e63          	beqz	a2,130a0 <_vfprintf_r+0x283c>
   13088:	02012783          	lw	a5,32(sp)
   1308c:	00158593          	addi	a1,a1,1
   13090:	00178793          	addi	a5,a5,1
   13094:	02f12023          	sw	a5,32(sp)
   13098:	00060793          	mv	a5,a2
   1309c:	fd9ff06f          	j	13074 <_vfprintf_r+0x2810>
   130a0:	02412603          	lw	a2,36(sp)
   130a4:	00160613          	addi	a2,a2,1
   130a8:	02c12223          	sw	a2,36(sp)
   130ac:	fc9ff06f          	j	13074 <_vfprintf_r+0x2810>
   130b0:	00e12a23          	sw	a4,20(sp)
   130b4:	02012783          	lw	a5,32(sp)
   130b8:	02412703          	lw	a4,36(sp)
   130bc:	02b12e23          	sw	a1,60(sp)
   130c0:	04012583          	lw	a1,64(sp)
   130c4:	00e78533          	add	a0,a5,a4
   130c8:	b7cfd0ef          	jal	ra,10444 <__mulsi3>
   130cc:	01750bb3          	add	s7,a0,s7
   130d0:	fffbca13          	not	s4,s7
   130d4:	41fa5a13          	srai	s4,s4,0x1f
   130d8:	014bfa33          	and	s4,s7,s4
   130dc:	b88fe06f          	j	11464 <_vfprintf_r+0xc00>
   130e0:	0d610793          	addi	a5,sp,214
   130e4:	00071863          	bnez	a4,130f4 <_vfprintf_r+0x2890>
   130e8:	03000793          	li	a5,48
   130ec:	0cf10b23          	sb	a5,214(sp)
   130f0:	0d710793          	addi	a5,sp,215
   130f4:	1b010713          	addi	a4,sp,432
   130f8:	030a0a13          	addi	s4,s4,48
   130fc:	40e78733          	sub	a4,a5,a4
   13100:	01478023          	sb	s4,0(a5)
   13104:	0dd70793          	addi	a5,a4,221
   13108:	02f12c23          	sw	a5,56(sp)
   1310c:	b14fe06f          	j	11420 <_vfprintf_r+0xbbc>
   13110:	02812783          	lw	a5,40(sp)
   13114:	06600413          	li	s0,102
   13118:	00f70bb3          	add	s7,a4,a5
   1311c:	016b8bb3          	add	s7,s7,s6
   13120:	d49ff06f          	j	12e68 <_vfprintf_r+0x2604>
   13124:	0b010b93          	addi	s7,sp,176
   13128:	000b8513          	mv	a0,s7
   1312c:	0bd12823          	sw	t4,176(sp)
   13130:	0be12a23          	sw	t5,180(sp)
   13134:	0bf12c23          	sw	t6,184(sp)
   13138:	0bc12e23          	sw	t3,188(sp)
   1313c:	3591b0ef          	jal	ra,2ec94 <__trunctfdf2>
   13140:	0cc10613          	addi	a2,sp,204
   13144:	364090ef          	jal	ra,1c4a8 <frexp>
   13148:	00058613          	mv	a2,a1
   1314c:	00050593          	mv	a1,a0
   13150:	000b8513          	mv	a0,s7
   13154:	7b81b0ef          	jal	ra,2e90c <__extenddftf2>
   13158:	09010793          	addi	a5,sp,144
   1315c:	00078593          	mv	a1,a5
   13160:	00f12c23          	sw	a5,24(sp)
   13164:	0b012783          	lw	a5,176(sp)
   13168:	0a010a13          	addi	s4,sp,160
   1316c:	08010613          	addi	a2,sp,128
   13170:	08f12823          	sw	a5,144(sp)
   13174:	0b412783          	lw	a5,180(sp)
   13178:	000a0513          	mv	a0,s4
   1317c:	04c12623          	sw	a2,76(sp)
   13180:	08f12a23          	sw	a5,148(sp)
   13184:	0b812783          	lw	a5,184(sp)
   13188:	05412c23          	sw	s4,88(sp)
   1318c:	08012023          	sw	zero,128(sp)
   13190:	08f12c23          	sw	a5,152(sp)
   13194:	0bc12783          	lw	a5,188(sp)
   13198:	08012223          	sw	zero,132(sp)
   1319c:	08012423          	sw	zero,136(sp)
   131a0:	08f12e23          	sw	a5,156(sp)
   131a4:	3ffc07b7          	lui	a5,0x3ffc0
   131a8:	08f12623          	sw	a5,140(sp)
   131ac:	285180ef          	jal	ra,2bc30 <__multf3>
   131b0:	0a012683          	lw	a3,160(sp)
   131b4:	0a412e03          	lw	t3,164(sp)
   131b8:	0a812e83          	lw	t4,168(sp)
   131bc:	0ac12f03          	lw	t5,172(sp)
   131c0:	000a0593          	mv	a1,s4
   131c4:	000b8513          	mv	a0,s7
   131c8:	0ad12823          	sw	a3,176(sp)
   131cc:	02d12a23          	sw	a3,52(sp)
   131d0:	0bc12a23          	sw	t3,180(sp)
   131d4:	03c12223          	sw	t3,36(sp)
   131d8:	0bd12c23          	sw	t4,184(sp)
   131dc:	03d12023          	sw	t4,32(sp)
   131e0:	0be12e23          	sw	t5,188(sp)
   131e4:	01e12a23          	sw	t5,20(sp)
   131e8:	0a012023          	sw	zero,160(sp)
   131ec:	0a012223          	sw	zero,164(sp)
   131f0:	0a012423          	sw	zero,168(sp)
   131f4:	0a012623          	sw	zero,172(sp)
   131f8:	6e4180ef          	jal	ra,2b8dc <__eqtf2>
   131fc:	01412f03          	lw	t5,20(sp)
   13200:	02012e83          	lw	t4,32(sp)
   13204:	02412e03          	lw	t3,36(sp)
   13208:	03412683          	lw	a3,52(sp)
   1320c:	00051663          	bnez	a0,13218 <_vfprintf_r+0x29b4>
   13210:	00100793          	li	a5,1
   13214:	0cf12623          	sw	a5,204(sp)
   13218:	0001c797          	auipc	a5,0x1c
   1321c:	0f478793          	addi	a5,a5,244 # 2f30c <zeroes.4505+0x20>
   13220:	02f12a23          	sw	a5,52(sp)
   13224:	f38ff06f          	j	1295c <_vfprintf_r+0x20f8>
   13228:	05412783          	lw	a5,84(sp)
   1322c:	0017f793          	andi	a5,a5,1
   13230:	00079463          	bnez	a5,13238 <_vfprintf_r+0x29d4>
   13234:	a0cfe06f          	j	11440 <_vfprintf_r+0xbdc>
   13238:	a00fe06f          	j	11438 <_vfprintf_r+0xbd4>
   1323c:	0a010593          	addi	a1,sp,160
   13240:	000b8513          	mv	a0,s7
   13244:	0bd12823          	sw	t4,176(sp)
   13248:	03d12223          	sw	t4,36(sp)
   1324c:	0be12a23          	sw	t5,180(sp)
   13250:	03e12023          	sw	t5,32(sp)
   13254:	0bf12c23          	sw	t6,184(sp)
   13258:	01f12c23          	sw	t6,24(sp)
   1325c:	0bc12e23          	sw	t3,188(sp)
   13260:	01c12a23          	sw	t3,20(sp)
   13264:	04b12c23          	sw	a1,88(sp)
   13268:	0a012023          	sw	zero,160(sp)
   1326c:	0a012223          	sw	zero,164(sp)
   13270:	0a012423          	sw	zero,168(sp)
   13274:	0a012623          	sw	zero,172(sp)
   13278:	664180ef          	jal	ra,2b8dc <__eqtf2>
   1327c:	01412e03          	lw	t3,20(sp)
   13280:	01812f83          	lw	t6,24(sp)
   13284:	02012f03          	lw	t5,32(sp)
   13288:	02412e83          	lw	t4,36(sp)
   1328c:	ae050ce3          	beqz	a0,12d84 <_vfprintf_r+0x2520>
   13290:	00100793          	li	a5,1
   13294:	416787b3          	sub	a5,a5,s6
   13298:	0cf12623          	sw	a5,204(sp)
   1329c:	aedff06f          	j	12d88 <_vfprintf_r+0x2524>
   132a0:	40fb8bb3          	sub	s7,s7,a5
   132a4:	001b8b93          	addi	s7,s7,1
   132a8:	fffbca13          	not	s4,s7
   132ac:	41fa5a13          	srai	s4,s4,0x1f
   132b0:	014bfa33          	and	s4,s7,s4
   132b4:	9b1ff06f          	j	12c64 <_vfprintf_r+0x2400>
   132b8:	00079a63          	bnez	a5,132cc <_vfprintf_r+0x2a68>
   132bc:	00100a13          	li	s4,1
   132c0:	06600413          	li	s0,102
   132c4:	00100b93          	li	s7,1
   132c8:	99dff06f          	j	12c64 <_vfprintf_r+0x2400>
   132cc:	02812783          	lw	a5,40(sp)
   132d0:	06600413          	li	s0,102
   132d4:	00178b93          	addi	s7,a5,1
   132d8:	016b8bb3          	add	s7,s7,s6
   132dc:	fffbca13          	not	s4,s7
   132e0:	41fa5a13          	srai	s4,s4,0x1f
   132e4:	014bfa33          	and	s4,s7,s4
   132e8:	97dff06f          	j	12c64 <_vfprintf_r+0x2400>
   132ec:	000d8613          	mv	a2,s11
   132f0:	cb1fe06f          	j	11fa0 <_vfprintf_r+0x173c>
   132f4:	00c12703          	lw	a4,12(sp)
   132f8:	00072b03          	lw	s6,0(a4)
   132fc:	00470713          	addi	a4,a4,4
   13300:	000b5463          	bgez	s6,13308 <_vfprintf_r+0x2aa4>
   13304:	fff00b13          	li	s6,-1
   13308:	00194403          	lbu	s0,1(s2)
   1330c:	00e12623          	sw	a4,12(sp)
   13310:	00078913          	mv	s2,a5
   13314:	f04fd06f          	j	10a18 <_vfprintf_r+0x1b4>
   13318:	00098a13          	mv	s4,s3
   1331c:	b2dfd06f          	j	10e48 <_vfprintf_r+0x5e4>
   13320:	00200793          	li	a5,2
   13324:	02f12c23          	sw	a5,56(sp)
   13328:	8f8fe06f          	j	11420 <_vfprintf_r+0xbbc>
   1332c:	00412703          	lw	a4,4(sp)
   13330:	00c75783          	lhu	a5,12(a4)
   13334:	0407e793          	ori	a5,a5,64
   13338:	00f71623          	sh	a5,12(a4)
   1333c:	ff4fd06f          	j	10b30 <_vfprintf_r+0x2cc>
   13340:	00098a13          	mv	s4,s3
   13344:	954fe06f          	j	11498 <_vfprintf_r+0xc34>
   13348:	000b0a13          	mv	s4,s6
   1334c:	c59ff06f          	j	12fa4 <_vfprintf_r+0x2740>

00013350 <vfprintf>:
   13350:	22818793          	addi	a5,gp,552 # 31ae8 <_impure_ptr>
   13354:	00060693          	mv	a3,a2
   13358:	00058613          	mv	a2,a1
   1335c:	00050593          	mv	a1,a0
   13360:	0007a503          	lw	a0,0(a5)
   13364:	d00fd06f          	j	10864 <_vfprintf_r>

00013368 <__sbprintf>:
   13368:	00c5d783          	lhu	a5,12(a1)
   1336c:	0645ae03          	lw	t3,100(a1)
   13370:	00e5d303          	lhu	t1,14(a1)
   13374:	01c5a883          	lw	a7,28(a1)
   13378:	0245a803          	lw	a6,36(a1)
   1337c:	b8010113          	addi	sp,sp,-1152
   13380:	ffd7f793          	andi	a5,a5,-3
   13384:	40000713          	li	a4,1024
   13388:	46812c23          	sw	s0,1144(sp)
   1338c:	00f11a23          	sh	a5,20(sp)
   13390:	00058413          	mv	s0,a1
   13394:	07010793          	addi	a5,sp,112
   13398:	00810593          	addi	a1,sp,8
   1339c:	46912a23          	sw	s1,1140(sp)
   133a0:	47212823          	sw	s2,1136(sp)
   133a4:	46112e23          	sw	ra,1148(sp)
   133a8:	00050913          	mv	s2,a0
   133ac:	07c12623          	sw	t3,108(sp)
   133b0:	00611b23          	sh	t1,22(sp)
   133b4:	03112223          	sw	a7,36(sp)
   133b8:	03012623          	sw	a6,44(sp)
   133bc:	00f12423          	sw	a5,8(sp)
   133c0:	00f12c23          	sw	a5,24(sp)
   133c4:	00e12823          	sw	a4,16(sp)
   133c8:	00e12e23          	sw	a4,28(sp)
   133cc:	02012023          	sw	zero,32(sp)
   133d0:	c94fd0ef          	jal	ra,10864 <_vfprintf_r>
   133d4:	00050493          	mv	s1,a0
   133d8:	02055c63          	bgez	a0,13410 <__sbprintf+0xa8>
   133dc:	01415783          	lhu	a5,20(sp)
   133e0:	0407f793          	andi	a5,a5,64
   133e4:	00078863          	beqz	a5,133f4 <__sbprintf+0x8c>
   133e8:	00c45783          	lhu	a5,12(s0)
   133ec:	0407e793          	ori	a5,a5,64
   133f0:	00f41623          	sh	a5,12(s0)
   133f4:	47c12083          	lw	ra,1148(sp)
   133f8:	47812403          	lw	s0,1144(sp)
   133fc:	00048513          	mv	a0,s1
   13400:	47012903          	lw	s2,1136(sp)
   13404:	47412483          	lw	s1,1140(sp)
   13408:	48010113          	addi	sp,sp,1152
   1340c:	00008067          	ret
   13410:	00810593          	addi	a1,sp,8
   13414:	00090513          	mv	a0,s2
   13418:	0e4030ef          	jal	ra,164fc <_fflush_r>
   1341c:	fc0500e3          	beqz	a0,133dc <__sbprintf+0x74>
   13420:	fff00493          	li	s1,-1
   13424:	fb9ff06f          	j	133dc <__sbprintf+0x74>

00013428 <__svfscanf_r>:
   13428:	ae010113          	addi	sp,sp,-1312
   1342c:	fffff7b7          	lui	a5,0xfffff
   13430:	50812c23          	sw	s0,1304(sp)
   13434:	4f712e23          	sw	s7,1276(sp)
   13438:	4fb12623          	sw	s11,1260(sp)
   1343c:	50112e23          	sw	ra,1308(sp)
   13440:	50912a23          	sw	s1,1300(sp)
   13444:	51212823          	sw	s2,1296(sp)
   13448:	51312623          	sw	s3,1292(sp)
   1344c:	51412423          	sw	s4,1288(sp)
   13450:	51512223          	sw	s5,1284(sp)
   13454:	51612023          	sw	s6,1280(sp)
   13458:	4f812c23          	sw	s8,1272(sp)
   1345c:	4f912a23          	sw	s9,1268(sp)
   13460:	4fa12823          	sw	s10,1264(sp)
   13464:	52010413          	addi	s0,sp,1312
   13468:	b1c78793          	addi	a5,a5,-1252 # ffffeb1c <__BSS_END__+0xfffccfc8>
   1346c:	008787b3          	add	a5,a5,s0
   13470:	00a7a023          	sw	a0,0(a5)
   13474:	00c59703          	lh	a4,12(a1)
   13478:	fffff7b7          	lui	a5,0xfffff
   1347c:	b0c78793          	addi	a5,a5,-1268 # ffffeb0c <__BSS_END__+0xfffccfb8>
   13480:	008787b3          	add	a5,a5,s0
   13484:	fffff337          	lui	t1,0xfffff
   13488:	00d7a023          	sw	a3,0(a5)
   1348c:	01271793          	slli	a5,a4,0x12
   13490:	00610133          	add	sp,sp,t1
   13494:	00058d93          	mv	s11,a1
   13498:	00060b93          	mv	s7,a2
   1349c:	0207c263          	bltz	a5,134c0 <__svfscanf_r+0x98>
   134a0:	0645a683          	lw	a3,100(a1)
   134a4:	00002637          	lui	a2,0x2
   134a8:	00c76733          	or	a4,a4,a2
   134ac:	ffffe637          	lui	a2,0xffffe
   134b0:	fff60613          	addi	a2,a2,-1 # ffffdfff <__BSS_END__+0xfffcc4ab>
   134b4:	00c6f6b3          	and	a3,a3,a2
   134b8:	00e59623          	sh	a4,12(a1)
   134bc:	06d5a223          	sw	a3,100(a1)
   134c0:	fffff6b7          	lui	a3,0xfffff
   134c4:	b0068693          	addi	a3,a3,-1280 # ffffeb00 <__BSS_END__+0xfffccfac>
   134c8:	008686b3          	add	a3,a3,s0
   134cc:	0006a023          	sw	zero,0(a3)
   134d0:	fffff6b7          	lui	a3,0xfffff
   134d4:	b1068693          	addi	a3,a3,-1264 # ffffeb10 <__BSS_END__+0xfffccfbc>
   134d8:	008686b3          	add	a3,a3,s0
   134dc:	0006a023          	sw	zero,0(a3)
   134e0:	fffff6b7          	lui	a3,0xfffff
   134e4:	b0468693          	addi	a3,a3,-1276 # ffffeb04 <__BSS_END__+0xfffccfb0>
   134e8:	008686b3          	add	a3,a3,s0
   134ec:	0006a023          	sw	zero,0(a3)
   134f0:	fffff6b7          	lui	a3,0xfffff
   134f4:	b1468693          	addi	a3,a3,-1260 # ffffeb14 <__BSS_END__+0xfffccfc0>
   134f8:	fffff7b7          	lui	a5,0xfffff
   134fc:	008686b3          	add	a3,a3,s0
   13500:	b8878713          	addi	a4,a5,-1144 # ffffeb88 <__BSS_END__+0xfffcd034>
   13504:	0006a023          	sw	zero,0(a3)
   13508:	fc040693          	addi	a3,s0,-64
   1350c:	00e68733          	add	a4,a3,a4
   13510:	00f689b3          	add	s3,a3,a5
   13514:	fffff6b7          	lui	a3,0xfffff
   13518:	b0868693          	addi	a3,a3,-1272 # ffffeb08 <__BSS_END__+0xfffccfb4>
   1351c:	008686b3          	add	a3,a3,s0
   13520:	00e6a023          	sw	a4,0(a3)
   13524:	c9078793          	addi	a5,a5,-880
   13528:	fc040713          	addi	a4,s0,-64
   1352c:	00f707b3          	add	a5,a4,a5
   13530:	fffff737          	lui	a4,0xfffff
   13534:	b1870713          	addi	a4,a4,-1256 # ffffeb18 <__BSS_END__+0xfffccfc4>
   13538:	00000a93          	li	s5,0
   1353c:	00870733          	add	a4,a4,s0
   13540:	000a8d13          	mv	s10,s5
   13544:	00000493          	li	s1,0
   13548:	00f72023          	sw	a5,0(a4)
   1354c:	000b8a93          	mv	s5,s7
   13550:	000ac783          	lbu	a5,0(s5)
   13554:	001a8913          	addi	s2,s5,1
   13558:	b6f9ae23          	sw	a5,-1156(s3)
   1355c:	0a078a63          	beqz	a5,13610 <__svfscanf_r+0x1e8>
   13560:	0001ca17          	auipc	s4,0x1c
   13564:	1d9a0a13          	addi	s4,s4,473 # 2f739 <_ctype_+0x1>
   13568:	00fa0733          	add	a4,s4,a5
   1356c:	00074703          	lbu	a4,0(a4)
   13570:	00877c93          	andi	s9,a4,8
   13574:	120c9863          	bnez	s9,136a4 <__svfscanf_r+0x27c>
   13578:	02500693          	li	a3,37
   1357c:	04d79663          	bne	a5,a3,135c8 <__svfscanf_r+0x1a0>
   13580:	001ac603          	lbu	a2,1(s5)
   13584:	00000c13          	li	s8,0
   13588:	00000b93          	li	s7,0
   1358c:	05500593          	li	a1,85
   13590:	0001c697          	auipc	a3,0x1c
   13594:	db068693          	addi	a3,a3,-592 # 2f340 <zeroes.4505+0x54>
   13598:	06800e93          	li	t4,104
   1359c:	06c00513          	li	a0,108
   135a0:	fdb60793          	addi	a5,a2,-37
   135a4:	0ff7f793          	andi	a5,a5,255
   135a8:	00190a93          	addi	s5,s2,1
   135ac:	18f5e063          	bltu	a1,a5,1372c <__svfscanf_r+0x304>
   135b0:	00279793          	slli	a5,a5,0x2
   135b4:	00d787b3          	add	a5,a5,a3
   135b8:	0007a783          	lw	a5,0(a5)
   135bc:	00d787b3          	add	a5,a5,a3
   135c0:	00078067          	jr	a5
   135c4:	000a8913          	mv	s2,s5
   135c8:	004da783          	lw	a5,4(s11)
   135cc:	00f04463          	bgtz	a5,135d4 <__svfscanf_r+0x1ac>
   135d0:	7b50006f          	j	14584 <__svfscanf_r+0x115c>
   135d4:	000da783          	lw	a5,0(s11)
   135d8:	fff94703          	lbu	a4,-1(s2)
   135dc:	0007c683          	lbu	a3,0(a5)
   135e0:	02e69863          	bne	a3,a4,13610 <__svfscanf_r+0x1e8>
   135e4:	004da703          	lw	a4,4(s11)
   135e8:	00178793          	addi	a5,a5,1
   135ec:	00fda023          	sw	a5,0(s11)
   135f0:	fff70793          	addi	a5,a4,-1
   135f4:	00090a93          	mv	s5,s2
   135f8:	00fda223          	sw	a5,4(s11)
   135fc:	000ac783          	lbu	a5,0(s5)
   13600:	001d0d13          	addi	s10,s10,1
   13604:	001a8913          	addi	s2,s5,1
   13608:	b6f9ae23          	sw	a5,-1156(s3)
   1360c:	f4079ae3          	bnez	a5,13560 <__svfscanf_r+0x138>
   13610:	fffff7b7          	lui	a5,0xfffff
   13614:	b1078793          	addi	a5,a5,-1264 # ffffeb10 <__BSS_END__+0xfffccfbc>
   13618:	008787b3          	add	a5,a5,s0
   1361c:	0007a783          	lw	a5,0(a5)
   13620:	02078263          	beqz	a5,13644 <__svfscanf_r+0x21c>
   13624:	fffff7b7          	lui	a5,0xfffff
   13628:	b1078793          	addi	a5,a5,-1264 # ffffeb10 <__BSS_END__+0xfffccfbc>
   1362c:	008787b3          	add	a5,a5,s0
   13630:	0007a783          	lw	a5,0(a5)
   13634:	0007a903          	lw	s2,0(a5)
   13638:	00090663          	beqz	s2,13644 <__svfscanf_r+0x21c>
   1363c:	00090513          	mv	a0,s2
   13640:	125060ef          	jal	ra,19f64 <free>
   13644:	fffff7b7          	lui	a5,0xfffff
   13648:	b1478793          	addi	a5,a5,-1260 # ffffeb14 <__BSS_END__+0xfffccfc0>
   1364c:	fffff337          	lui	t1,0xfffff
   13650:	008787b3          	add	a5,a5,s0
   13654:	ae030313          	addi	t1,t1,-1312 # ffffeae0 <__BSS_END__+0xfffccf8c>
   13658:	0007a503          	lw	a0,0(a5)
   1365c:	00640133          	add	sp,s0,t1
   13660:	00001337          	lui	t1,0x1
   13664:	00610133          	add	sp,sp,t1
   13668:	51c12083          	lw	ra,1308(sp)
   1366c:	51812403          	lw	s0,1304(sp)
   13670:	51412483          	lw	s1,1300(sp)
   13674:	51012903          	lw	s2,1296(sp)
   13678:	50c12983          	lw	s3,1292(sp)
   1367c:	50812a03          	lw	s4,1288(sp)
   13680:	50412a83          	lw	s5,1284(sp)
   13684:	50012b03          	lw	s6,1280(sp)
   13688:	4fc12b83          	lw	s7,1276(sp)
   1368c:	4f812c03          	lw	s8,1272(sp)
   13690:	4f412c83          	lw	s9,1268(sp)
   13694:	4f012d03          	lw	s10,1264(sp)
   13698:	4ec12d83          	lw	s11,1260(sp)
   1369c:	52010113          	addi	sp,sp,1312
   136a0:	00008067          	ret
   136a4:	fffff737          	lui	a4,0xfffff
   136a8:	004da783          	lw	a5,4(s11)
   136ac:	b1c70713          	addi	a4,a4,-1252 # ffffeb1c <__BSS_END__+0xfffccfc8>
   136b0:	00870733          	add	a4,a4,s0
   136b4:	00072a83          	lw	s5,0(a4)
   136b8:	02f05c63          	blez	a5,136f0 <__svfscanf_r+0x2c8>
   136bc:	000da703          	lw	a4,0(s11)
   136c0:	00074783          	lbu	a5,0(a4)
   136c4:	00fa07b3          	add	a5,s4,a5
   136c8:	0007c783          	lbu	a5,0(a5)
   136cc:	0087f793          	andi	a5,a5,8
   136d0:	02078863          	beqz	a5,13700 <__svfscanf_r+0x2d8>
   136d4:	004da783          	lw	a5,4(s11)
   136d8:	00170713          	addi	a4,a4,1
   136dc:	00eda023          	sw	a4,0(s11)
   136e0:	fff78793          	addi	a5,a5,-1
   136e4:	00fda223          	sw	a5,4(s11)
   136e8:	001d0d13          	addi	s10,s10,1
   136ec:	fcf048e3          	bgtz	a5,136bc <__svfscanf_r+0x294>
   136f0:	000d8593          	mv	a1,s11
   136f4:	000a8513          	mv	a0,s5
   136f8:	289080ef          	jal	ra,1c180 <__srefill_r>
   136fc:	fc0500e3          	beqz	a0,136bc <__svfscanf_r+0x294>
   13700:	00090a93          	mv	s5,s2
   13704:	e4dff06f          	j	13550 <__svfscanf_r+0x128>
   13708:	00fc7793          	andi	a5,s8,15
   1370c:	f00792e3          	bnez	a5,13610 <__svfscanf_r+0x1e8>
   13710:	00194603          	lbu	a2,1(s2)
   13714:	000a8913          	mv	s2,s5
   13718:	002c6c13          	ori	s8,s8,2
   1371c:	fdb60793          	addi	a5,a2,-37
   13720:	0ff7f793          	andi	a5,a5,255
   13724:	00190a93          	addi	s5,s2,1
   13728:	e8f5f4e3          	bgeu	a1,a5,135b0 <__svfscanf_r+0x188>
   1372c:	fffff7b7          	lui	a5,0xfffff
   13730:	b1078793          	addi	a5,a5,-1264 # ffffeb10 <__BSS_END__+0xfffccfbc>
   13734:	008787b3          	add	a5,a5,s0
   13738:	0007a783          	lw	a5,0(a5)
   1373c:	f00784e3          	beqz	a5,13644 <__svfscanf_r+0x21c>
   13740:	0007a903          	lw	s2,0(a5)
   13744:	ef5ff06f          	j	13638 <__svfscanf_r+0x210>
   13748:	00fc7793          	andi	a5,s8,15
   1374c:	ec0792e3          	bnez	a5,13610 <__svfscanf_r+0x1e8>
   13750:	00194603          	lbu	a2,1(s2)
   13754:	000a8913          	mv	s2,s5
   13758:	e49ff06f          	j	135a0 <__svfscanf_r+0x178>
   1375c:	001c6c13          	ori	s8,s8,1
   13760:	fffff737          	lui	a4,0xfffff
   13764:	b0070713          	addi	a4,a4,-1280 # ffffeb00 <__BSS_END__+0xfffccfac>
   13768:	0000c797          	auipc	a5,0xc
   1376c:	91078793          	addi	a5,a5,-1776 # 1f078 <_strtoul_r>
   13770:	00870733          	add	a4,a4,s0
   13774:	00f72023          	sw	a5,0(a4)
   13778:	00800793          	li	a5,8
   1377c:	fffff737          	lui	a4,0xfffff
   13780:	b0470713          	addi	a4,a4,-1276 # ffffeb04 <__BSS_END__+0xfffccfb0>
   13784:	00870733          	add	a4,a4,s0
   13788:	00f72023          	sw	a5,0(a4)
   1378c:	00300913          	li	s2,3
   13790:	004da783          	lw	a5,4(s11)
   13794:	7ef05863          	blez	a5,13f84 <__svfscanf_r+0xb5c>
   13798:	040c7793          	andi	a5,s8,64
   1379c:	12078a63          	beqz	a5,138d0 <__svfscanf_r+0x4a8>
   137a0:	00200793          	li	a5,2
   137a4:	16f90e63          	beq	s2,a5,13920 <__svfscanf_r+0x4f8>
   137a8:	2527dee3          	bge	a5,s2,14204 <__svfscanf_r+0xddc>
   137ac:	00300793          	li	a5,3
   137b0:	00f91463          	bne	s2,a5,137b8 <__svfscanf_r+0x390>
   137b4:	0d00106f          	j	14884 <__svfscanf_r+0x145c>
   137b8:	00400793          	li	a5,4
   137bc:	5ef916e3          	bne	s2,a5,145a8 <__svfscanf_r+0x1180>
   137c0:	fffff7b7          	lui	a5,0xfffff
   137c4:	b1c78793          	addi	a5,a5,-1252 # ffffeb1c <__BSS_END__+0xfffccfc8>
   137c8:	008787b3          	add	a5,a5,s0
   137cc:	0007a503          	lw	a0,0(a5)
   137d0:	4ec060ef          	jal	ra,19cbc <_localeconv_r>
   137d4:	00052703          	lw	a4,0(a0)
   137d8:	fffff5b7          	lui	a1,0xfffff
   137dc:	af858593          	addi	a1,a1,-1288 # ffffeaf8 <__BSS_END__+0xfffccfa4>
   137e0:	008585b3          	add	a1,a1,s0
   137e4:	00e5a023          	sw	a4,0(a1)
   137e8:	fffff737          	lui	a4,0xfffff
   137ec:	af470713          	addi	a4,a4,-1292 # ffffeaf4 <__BSS_END__+0xfffccfa0>
   137f0:	000016b7          	lui	a3,0x1
   137f4:	00870733          	add	a4,a4,s0
   137f8:	fffb8793          	addi	a5,s7,-1
   137fc:	36c68613          	addi	a2,a3,876 # 136c <register_fini-0xed08>
   13800:	00072023          	sw	zero,0(a4)
   13804:	02f67263          	bgeu	a2,a5,13828 <__svfscanf_r+0x400>
   13808:	fffff7b7          	lui	a5,0xfffff
   1380c:	fffff737          	lui	a4,0xfffff
   13810:	c9378793          	addi	a5,a5,-877 # ffffec93 <__BSS_END__+0xfffcd13f>
   13814:	af470713          	addi	a4,a4,-1292 # ffffeaf4 <__BSS_END__+0xfffccfa0>
   13818:	00fb87b3          	add	a5,s7,a5
   1381c:	00870733          	add	a4,a4,s0
   13820:	00f72023          	sw	a5,0(a4)
   13824:	36d68b93          	addi	s7,a3,877
   13828:	fffff7b7          	lui	a5,0xfffff
   1382c:	aec78793          	addi	a5,a5,-1300 # ffffeaec <__BSS_END__+0xfffccf98>
   13830:	008787b3          	add	a5,a5,s0
   13834:	0007a023          	sw	zero,0(a5)
   13838:	fffff7b7          	lui	a5,0xfffff
   1383c:	af078793          	addi	a5,a5,-1296 # ffffeaf0 <__BSS_END__+0xfffccf9c>
   13840:	008787b3          	add	a5,a5,s0
   13844:	0007a023          	sw	zero,0(a5)
   13848:	fffff7b7          	lui	a5,0xfffff
   1384c:	afc78793          	addi	a5,a5,-1284 # ffffeafc <__BSS_END__+0xfffccfa8>
   13850:	008787b3          	add	a5,a5,s0
   13854:	fffff737          	lui	a4,0xfffff
   13858:	00000913          	li	s2,0
   1385c:	0007a023          	sw	zero,0(a5)
   13860:	c9070713          	addi	a4,a4,-880 # ffffec90 <__BSS_END__+0xfffcd13c>
   13864:	fc040793          	addi	a5,s0,-64
   13868:	780c6a13          	ori	s4,s8,1920
   1386c:	00e78c33          	add	s8,a5,a4
   13870:	00090793          	mv	a5,s2
   13874:	00000b13          	li	s6,0
   13878:	000b8913          	mv	s2,s7
   1387c:	04e00e93          	li	t4,78
   13880:	0001c617          	auipc	a2,0x1c
   13884:	c1860613          	addi	a2,a2,-1000 # 2f498 <zeroes.4505+0x1ac>
   13888:	00078b93          	mv	s7,a5
   1388c:	000da703          	lw	a4,0(s11)
   13890:	00074583          	lbu	a1,0(a4)
   13894:	fd558793          	addi	a5,a1,-43
   13898:	0ff7f793          	andi	a5,a5,255
   1389c:	6afee063          	bltu	t4,a5,13f3c <__svfscanf_r+0xb14>
   138a0:	00279793          	slli	a5,a5,0x2
   138a4:	00c787b3          	add	a5,a5,a2
   138a8:	0007a783          	lw	a5,0(a5)
   138ac:	00c787b3          	add	a5,a5,a2
   138b0:	00078067          	jr	a5
   138b4:	fffff7b7          	lui	a5,0xfffff
   138b8:	b1c78793          	addi	a5,a5,-1252 # ffffeb1c <__BSS_END__+0xfffccfc8>
   138bc:	008787b3          	add	a5,a5,s0
   138c0:	0007a503          	lw	a0,0(a5)
   138c4:	000d8593          	mv	a1,s11
   138c8:	0b9080ef          	jal	ra,1c180 <__srefill_r>
   138cc:	6c051a63          	bnez	a0,13fa0 <__svfscanf_r+0xb78>
   138d0:	000da683          	lw	a3,0(s11)
   138d4:	0006c783          	lbu	a5,0(a3)
   138d8:	00fa07b3          	add	a5,s4,a5
   138dc:	0007c783          	lbu	a5,0(a5)
   138e0:	0087f793          	andi	a5,a5,8
   138e4:	ea078ee3          	beqz	a5,137a0 <__svfscanf_r+0x378>
   138e8:	004da783          	lw	a5,4(s11)
   138ec:	001d0d13          	addi	s10,s10,1
   138f0:	fff78793          	addi	a5,a5,-1
   138f4:	00fda223          	sw	a5,4(s11)
   138f8:	faf05ee3          	blez	a5,138b4 <__svfscanf_r+0x48c>
   138fc:	00168693          	addi	a3,a3,1
   13900:	00dda023          	sw	a3,0(s11)
   13904:	0006c783          	lbu	a5,0(a3)
   13908:	00fa07b3          	add	a5,s4,a5
   1390c:	0007c783          	lbu	a5,0(a5)
   13910:	0087f793          	andi	a5,a5,8
   13914:	fc079ae3          	bnez	a5,138e8 <__svfscanf_r+0x4c0>
   13918:	00200793          	li	a5,2
   1391c:	e8f916e3          	bne	s2,a5,137a8 <__svfscanf_r+0x380>
   13920:	000b9463          	bnez	s7,13928 <__svfscanf_r+0x500>
   13924:	fff00b93          	li	s7,-1
   13928:	001c7913          	andi	s2,s8,1
   1392c:	010c7b13          	andi	s6,s8,16
   13930:	00091463          	bnez	s2,13938 <__svfscanf_r+0x510>
   13934:	4280106f          	j	14d5c <__svfscanf_r+0x1934>
   13938:	000b0463          	beqz	s6,13940 <__svfscanf_r+0x518>
   1393c:	1510106f          	j	1528c <__svfscanf_r+0x1e64>
   13940:	fffff737          	lui	a4,0xfffff
   13944:	b0c70713          	addi	a4,a4,-1268 # ffffeb0c <__BSS_END__+0xfffccfb8>
   13948:	00870733          	add	a4,a4,s0
   1394c:	00072703          	lw	a4,0(a4)
   13950:	fffff6b7          	lui	a3,0xfffff
   13954:	afc68693          	addi	a3,a3,-1284 # ffffeafc <__BSS_END__+0xfffccfa8>
   13958:	00470913          	addi	s2,a4,4
   1395c:	00072703          	lw	a4,0(a4)
   13960:	008686b3          	add	a3,a3,s0
   13964:	080c7793          	andi	a5,s8,128
   13968:	00e6a023          	sw	a4,0(a3)
   1396c:	00079463          	bnez	a5,13974 <__svfscanf_r+0x54c>
   13970:	1380206f          	j	15aa8 <__svfscanf_r+0x2680>
   13974:	da070ce3          	beqz	a4,1372c <__svfscanf_r+0x304>
   13978:	08000513          	li	a0,128
   1397c:	5d8060ef          	jal	ra,19f54 <malloc>
   13980:	00050c13          	mv	s8,a0
   13984:	00051463          	bnez	a0,1398c <__svfscanf_r+0x564>
   13988:	2f00206f          	j	15c78 <__svfscanf_r+0x2850>
   1398c:	fffff7b7          	lui	a5,0xfffff
   13990:	b1078793          	addi	a5,a5,-1264 # ffffeb10 <__BSS_END__+0xfffccfbc>
   13994:	008787b3          	add	a5,a5,s0
   13998:	fffff6b7          	lui	a3,0xfffff
   1399c:	0007a783          	lw	a5,0(a5)
   139a0:	afc68693          	addi	a3,a3,-1284 # ffffeafc <__BSS_END__+0xfffccfa8>
   139a4:	008686b3          	add	a3,a3,s0
   139a8:	0006a683          	lw	a3,0(a3)
   139ac:	0067dc83          	lhu	s9,6(a5)
   139b0:	0047d703          	lhu	a4,4(a5)
   139b4:	00a6a023          	sw	a0,0(a3)
   139b8:	00ece463          	bltu	s9,a4,139c0 <__svfscanf_r+0x598>
   139bc:	5dd0106f          	j	15798 <__svfscanf_r+0x2370>
   139c0:	0007a503          	lw	a0,0(a5)
   139c4:	fffff7b7          	lui	a5,0xfffff
   139c8:	b1078793          	addi	a5,a5,-1264 # ffffeb10 <__BSS_END__+0xfffccfbc>
   139cc:	008787b3          	add	a5,a5,s0
   139d0:	0007a783          	lw	a5,0(a5)
   139d4:	002c9713          	slli	a4,s9,0x2
   139d8:	001c8c93          	addi	s9,s9,1
   139dc:	01979323          	sh	s9,6(a5)
   139e0:	fffff7b7          	lui	a5,0xfffff
   139e4:	afc78793          	addi	a5,a5,-1284 # ffffeafc <__BSS_END__+0xfffccfa8>
   139e8:	008787b3          	add	a5,a5,s0
   139ec:	0007a783          	lw	a5,0(a5)
   139f0:	00e50533          	add	a0,a0,a4
   139f4:	fffff737          	lui	a4,0xfffff
   139f8:	00f52023          	sw	a5,0(a0)
   139fc:	fffff7b7          	lui	a5,0xfffff
   13a00:	b0c78793          	addi	a5,a5,-1268 # ffffeb0c <__BSS_END__+0xfffccfb8>
   13a04:	008787b3          	add	a5,a5,s0
   13a08:	af870713          	addi	a4,a4,-1288 # ffffeaf8 <__BSS_END__+0xfffccfa4>
   13a0c:	0127a023          	sw	s2,0(a5)
   13a10:	00870733          	add	a4,a4,s0
   13a14:	02000793          	li	a5,32
   13a18:	000c0c93          	mv	s9,s8
   13a1c:	00f72023          	sw	a5,0(a4)
   13a20:	00000913          	li	s2,0
   13a24:	000da783          	lw	a5,0(s11)
   13a28:	0007c783          	lbu	a5,0(a5)
   13a2c:	00fa07b3          	add	a5,s4,a5
   13a30:	0007c783          	lbu	a5,0(a5)
   13a34:	0087f793          	andi	a5,a5,8
   13a38:	00078463          	beqz	a5,13a40 <__svfscanf_r+0x618>
   13a3c:	2e90106f          	j	15524 <__svfscanf_r+0x20fc>
   13a40:	000b9463          	bnez	s7,13a48 <__svfscanf_r+0x620>
   13a44:	2e10106f          	j	15524 <__svfscanf_r+0x20fc>
   13a48:	300060ef          	jal	ra,19d48 <__locale_mb_cur_max>
   13a4c:	55250a63          	beq	a0,s2,13fa0 <__svfscanf_r+0xb78>
   13a50:	000da783          	lw	a5,0(s11)
   13a54:	004da703          	lw	a4,4(s11)
   13a58:	012986b3          	add	a3,s3,s2
   13a5c:	0007c603          	lbu	a2,0(a5)
   13a60:	fff70713          	addi	a4,a4,-1
   13a64:	00178793          	addi	a5,a5,1
   13a68:	00fda023          	sw	a5,0(s11)
   13a6c:	c8c68823          	sb	a2,-880(a3)
   13a70:	00eda223          	sw	a4,4(s11)
   13a74:	00300793          	li	a5,3
   13a78:	00190913          	addi	s2,s2,1
   13a7c:	00f49863          	bne	s1,a5,13a8c <__svfscanf_r+0x664>
   13a80:	b889a783          	lw	a5,-1144(s3)
   13a84:	00400713          	li	a4,4
   13a88:	02e78063          	beq	a5,a4,13aa8 <__svfscanf_r+0x680>
   13a8c:	fffff7b7          	lui	a5,0xfffff
   13a90:	b0878793          	addi	a5,a5,-1272 # ffffeb08 <__BSS_END__+0xfffccfb4>
   13a94:	008787b3          	add	a5,a5,s0
   13a98:	0007a503          	lw	a0,0(a5)
   13a9c:	00800613          	li	a2,8
   13aa0:	00000593          	li	a1,0
   13aa4:	bb5fc0ef          	jal	ra,10658 <memset>
   13aa8:	fffff7b7          	lui	a5,0xfffff
   13aac:	b0878793          	addi	a5,a5,-1272 # ffffeb08 <__BSS_END__+0xfffccfb4>
   13ab0:	008787b3          	add	a5,a5,s0
   13ab4:	0007a703          	lw	a4,0(a5)
   13ab8:	fffff7b7          	lui	a5,0xfffff
   13abc:	b1878793          	addi	a5,a5,-1256 # ffffeb18 <__BSS_END__+0xfffccfc4>
   13ac0:	008787b3          	add	a5,a5,s0
   13ac4:	0007a603          	lw	a2,0(a5)
   13ac8:	fffff7b7          	lui	a5,0xfffff
   13acc:	b1c78793          	addi	a5,a5,-1252 # ffffeb1c <__BSS_END__+0xfffccfc8>
   13ad0:	008787b3          	add	a5,a5,s0
   13ad4:	0007a503          	lw	a0,0(a5)
   13ad8:	00090693          	mv	a3,s2
   13adc:	000c0593          	mv	a1,s8
   13ae0:	461060ef          	jal	ra,1a740 <_mbrtowc_r>
   13ae4:	fff00793          	li	a5,-1
   13ae8:	00050493          	mv	s1,a0
   13aec:	4af50a63          	beq	a0,a5,13fa0 <__svfscanf_r+0xb78>
   13af0:	00050463          	beqz	a0,13af8 <__svfscanf_r+0x6d0>
   13af4:	1f50106f          	j	154e8 <__svfscanf_r+0x20c0>
   13af8:	000c2023          	sw	zero,0(s8)
   13afc:	63c030ef          	jal	ra,17138 <iswspace>
   13b00:	00050463          	beqz	a0,13b08 <__svfscanf_r+0x6e0>
   13b04:	6c90106f          	j	159cc <__svfscanf_r+0x25a4>
   13b08:	012d0d33          	add	s10,s10,s2
   13b0c:	fffb8b93          	addi	s7,s7,-1
   13b10:	000b0463          	beqz	s6,13b18 <__svfscanf_r+0x6f0>
   13b14:	0900206f          	j	15ba4 <__svfscanf_r+0x277c>
   13b18:	fffff7b7          	lui	a5,0xfffff
   13b1c:	afc78793          	addi	a5,a5,-1284 # ffffeafc <__BSS_END__+0xfffccfa8>
   13b20:	008787b3          	add	a5,a5,s0
   13b24:	0007a783          	lw	a5,0(a5)
   13b28:	004c0c13          	addi	s8,s8,4
   13b2c:	00079463          	bnez	a5,13b34 <__svfscanf_r+0x70c>
   13b30:	0740206f          	j	15ba4 <__svfscanf_r+0x277c>
   13b34:	fffff6b7          	lui	a3,0xfffff
   13b38:	af868693          	addi	a3,a3,-1288 # ffffeaf8 <__BSS_END__+0xfffccfa4>
   13b3c:	008686b3          	add	a3,a3,s0
   13b40:	0006a683          	lw	a3,0(a3)
   13b44:	419c07b3          	sub	a5,s8,s9
   13b48:	4027d713          	srai	a4,a5,0x2
   13b4c:	00000913          	li	s2,0
   13b50:	00d77463          	bgeu	a4,a3,13b58 <__svfscanf_r+0x730>
   13b54:	19d0106f          	j	154f0 <__svfscanf_r+0x20c8>
   13b58:	fffff737          	lui	a4,0xfffff
   13b5c:	af470713          	addi	a4,a4,-1292 # ffffeaf4 <__BSS_END__+0xfffccfa0>
   13b60:	00870733          	add	a4,a4,s0
   13b64:	000c8513          	mv	a0,s9
   13b68:	00369593          	slli	a1,a3,0x3
   13b6c:	00f72023          	sw	a5,0(a4)
   13b70:	00068913          	mv	s2,a3
   13b74:	00c080ef          	jal	ra,1bb80 <realloc>
   13b78:	00050c93          	mv	s9,a0
   13b7c:	00051463          	bnez	a0,13b84 <__svfscanf_r+0x75c>
   13b80:	0f80206f          	j	15c78 <__svfscanf_r+0x2850>
   13b84:	fffff7b7          	lui	a5,0xfffff
   13b88:	af478793          	addi	a5,a5,-1292 # ffffeaf4 <__BSS_END__+0xfffccfa0>
   13b8c:	008787b3          	add	a5,a5,s0
   13b90:	0007a783          	lw	a5,0(a5)
   13b94:	fffff737          	lui	a4,0xfffff
   13b98:	af870713          	addi	a4,a4,-1288 # ffffeaf8 <__BSS_END__+0xfffccfa4>
   13b9c:	00f50c33          	add	s8,a0,a5
   13ba0:	fffff7b7          	lui	a5,0xfffff
   13ba4:	afc78793          	addi	a5,a5,-1284 # ffffeafc <__BSS_END__+0xfffccfa8>
   13ba8:	008787b3          	add	a5,a5,s0
   13bac:	0007a783          	lw	a5,0(a5)
   13bb0:	00870733          	add	a4,a4,s0
   13bb4:	00a7a023          	sw	a0,0(a5)
   13bb8:	00191793          	slli	a5,s2,0x1
   13bbc:	00f72023          	sw	a5,0(a4)
   13bc0:	000b0913          	mv	s2,s6
   13bc4:	12d0106f          	j	154f0 <__svfscanf_r+0x20c8>
   13bc8:	019b07b3          	add	a5,s6,s9
   13bcc:	02079a63          	bnez	a5,13c00 <__svfscanf_r+0x7d8>
   13bd0:	e7fa7a13          	andi	s4,s4,-385
   13bd4:	00bc0023          	sb	a1,0(s8)
   13bd8:	fff90913          	addi	s2,s2,-1
   13bdc:	001c0c13          	addi	s8,s8,1
   13be0:	004da783          	lw	a5,4(s11)
   13be4:	001d0d13          	addi	s10,s10,1
   13be8:	fff78793          	addi	a5,a5,-1
   13bec:	00fda223          	sw	a5,4(s11)
   13bf0:	2cf05c63          	blez	a5,13ec8 <__svfscanf_r+0xaa0>
   13bf4:	00170713          	addi	a4,a4,1
   13bf8:	00eda023          	sw	a4,0(s11)
   13bfc:	c80918e3          	bnez	s2,1388c <__svfscanf_r+0x464>
   13c00:	000b8913          	mv	s2,s7
   13c04:	000b8463          	beqz	s7,13c0c <__svfscanf_r+0x7e4>
   13c08:	3fc0106f          	j	15004 <__svfscanf_r+0x1bdc>
   13c0c:	fffb0f13          	addi	t5,s6,-1
   13c10:	00100793          	li	a5,1
   13c14:	01e7e463          	bltu	a5,t5,13c1c <__svfscanf_r+0x7f4>
   13c18:	0ac0206f          	j	15cc4 <__svfscanf_r+0x289c>
   13c1c:	fffc8793          	addi	a5,s9,-1
   13c20:	00600613          	li	a2,6
   13c24:	00f66463          	bltu	a2,a5,13c2c <__svfscanf_r+0x804>
   13c28:	1e10106f          	j	15608 <__svfscanf_r+0x21e0>
   13c2c:	100a7793          	andi	a5,s4,256
   13c30:	06078863          	beqz	a5,13ca0 <__svfscanf_r+0x878>
   13c34:	400a7793          	andi	a5,s4,1024
   13c38:	00078463          	beqz	a5,13c40 <__svfscanf_r+0x818>
   13c3c:	1080206f          	j	15d44 <__svfscanf_r+0x291c>
   13c40:	fffc4583          	lbu	a1,-1(s8)
   13c44:	06500793          	li	a5,101
   13c48:	fffc0b13          	addi	s6,s8,-1
   13c4c:	fffd0b93          	addi	s7,s10,-1
   13c50:	02f58863          	beq	a1,a5,13c80 <__svfscanf_r+0x858>
   13c54:	04500793          	li	a5,69
   13c58:	02f58463          	beq	a1,a5,13c80 <__svfscanf_r+0x858>
   13c5c:	fffff7b7          	lui	a5,0xfffff
   13c60:	b1c78793          	addi	a5,a5,-1252 # ffffeb1c <__BSS_END__+0xfffccfc8>
   13c64:	008787b3          	add	a5,a5,s0
   13c68:	0007a503          	lw	a0,0(a5)
   13c6c:	000d8613          	mv	a2,s11
   13c70:	ffec0b13          	addi	s6,s8,-2
   13c74:	7c10d0ef          	jal	ra,21c34 <_ungetc_r>
   13c78:	ffec4583          	lbu	a1,-2(s8)
   13c7c:	ffed0b93          	addi	s7,s10,-2
   13c80:	fffff7b7          	lui	a5,0xfffff
   13c84:	b1c78793          	addi	a5,a5,-1252 # ffffeb1c <__BSS_END__+0xfffccfc8>
   13c88:	008787b3          	add	a5,a5,s0
   13c8c:	0007a503          	lw	a0,0(a5)
   13c90:	000d8613          	mv	a2,s11
   13c94:	000b8d13          	mv	s10,s7
   13c98:	79d0d0ef          	jal	ra,21c34 <_ungetc_r>
   13c9c:	000b0c13          	mv	s8,s6
   13ca0:	010a7793          	andi	a5,s4,16
   13ca4:	8a0796e3          	bnez	a5,13550 <__svfscanf_r+0x128>
   13ca8:	000c0023          	sb	zero,0(s8)
   13cac:	600a7793          	andi	a5,s4,1536
   13cb0:	40000713          	li	a4,1024
   13cb4:	00e79463          	bne	a5,a4,13cbc <__svfscanf_r+0x894>
   13cb8:	4e80106f          	j	151a0 <__svfscanf_r+0x1d78>
   13cbc:	fffff7b7          	lui	a5,0xfffff
   13cc0:	af078793          	addi	a5,a5,-1296 # ffffeaf0 <__BSS_END__+0xfffccf9c>
   13cc4:	008787b3          	add	a5,a5,s0
   13cc8:	0007a783          	lw	a5,0(a5)
   13ccc:	00078463          	beqz	a5,13cd4 <__svfscanf_r+0x8ac>
   13cd0:	5910106f          	j	15a60 <__svfscanf_r+0x2638>
   13cd4:	fffff737          	lui	a4,0xfffff
   13cd8:	b0c70713          	addi	a4,a4,-1268 # ffffeb0c <__BSS_END__+0xfffccfb8>
   13cdc:	00870733          	add	a4,a4,s0
   13ce0:	00072703          	lw	a4,0(a4)
   13ce4:	002a7793          	andi	a5,s4,2
   13ce8:	001a7913          	andi	s2,s4,1
   13cec:	00470a13          	addi	s4,a4,4
   13cf0:	00079463          	bnez	a5,13cf8 <__svfscanf_r+0x8d0>
   13cf4:	5080106f          	j	151fc <__svfscanf_r+0x1dd4>
   13cf8:	fffff7b7          	lui	a5,0xfffff
   13cfc:	b6078513          	addi	a0,a5,-1184 # ffffeb60 <__BSS_END__+0xfffcd00c>
   13d00:	b1878793          	addi	a5,a5,-1256
   13d04:	008787b3          	add	a5,a5,s0
   13d08:	0007a603          	lw	a2,0(a5)
   13d0c:	fffff7b7          	lui	a5,0xfffff
   13d10:	b1c78793          	addi	a5,a5,-1252 # ffffeb1c <__BSS_END__+0xfffccfc8>
   13d14:	008787b3          	add	a5,a5,s0
   13d18:	0007a583          	lw	a1,0(a5)
   13d1c:	fc040793          	addi	a5,s0,-64
   13d20:	00000693          	li	a3,0
   13d24:	00a78533          	add	a0,a5,a0
   13d28:	5580a0ef          	jal	ra,1e280 <_strtold_r>
   13d2c:	b609a583          	lw	a1,-1184(s3)
   13d30:	b649a603          	lw	a2,-1180(s3)
   13d34:	b689a683          	lw	a3,-1176(s3)
   13d38:	b6c9a703          	lw	a4,-1172(s3)
   13d3c:	00091463          	bnez	s2,13d44 <__svfscanf_r+0x91c>
   13d40:	39d0106f          	j	158dc <__svfscanf_r+0x24b4>
   13d44:	00000b13          	li	s6,0
   13d48:	00000b93          	li	s7,0
   13d4c:	fffff7b7          	lui	a5,0xfffff
   13d50:	b0c78793          	addi	a5,a5,-1268 # ffffeb0c <__BSS_END__+0xfffccfb8>
   13d54:	008787b3          	add	a5,a5,s0
   13d58:	0007a783          	lw	a5,0(a5)
   13d5c:	0007a783          	lw	a5,0(a5)
   13d60:	0167a023          	sw	s6,0(a5)
   13d64:	0177a223          	sw	s7,4(a5)
   13d68:	fffff7b7          	lui	a5,0xfffff
   13d6c:	b1478793          	addi	a5,a5,-1260 # ffffeb14 <__BSS_END__+0xfffccfc0>
   13d70:	008787b3          	add	a5,a5,s0
   13d74:	0007a783          	lw	a5,0(a5)
   13d78:	fffff737          	lui	a4,0xfffff
   13d7c:	b1470713          	addi	a4,a4,-1260 # ffffeb14 <__BSS_END__+0xfffccfc0>
   13d80:	00178793          	addi	a5,a5,1
   13d84:	00870733          	add	a4,a4,s0
   13d88:	00f72023          	sw	a5,0(a4)
   13d8c:	fffff7b7          	lui	a5,0xfffff
   13d90:	b0c78793          	addi	a5,a5,-1268 # ffffeb0c <__BSS_END__+0xfffccfb8>
   13d94:	008787b3          	add	a5,a5,s0
   13d98:	0147a023          	sw	s4,0(a5)
   13d9c:	fb4ff06f          	j	13550 <__svfscanf_r+0x128>
   13da0:	00700793          	li	a5,7
   13da4:	e4fc9ee3          	bne	s9,a5,13c00 <__svfscanf_r+0x7d8>
   13da8:	00800c93          	li	s9,8
   13dac:	e29ff06f          	j	13bd4 <__svfscanf_r+0x7ac>
   13db0:	5c0c9ce3          	bnez	s9,14b88 <__svfscanf_r+0x1760>
   13db4:	000b8463          	beqz	s7,13dbc <__svfscanf_r+0x994>
   13db8:	2480106f          	j	15000 <__svfscanf_r+0x1bd8>
   13dbc:	700a7793          	andi	a5,s4,1792
   13dc0:	70000513          	li	a0,1792
   13dc4:	00a79463          	bne	a5,a0,13dcc <__svfscanf_r+0x9a4>
   13dc8:	3850106f          	j	1594c <__svfscanf_r+0x2524>
   13dcc:	000b8913          	mv	s2,s7
   13dd0:	e3dff06f          	j	13c0c <__svfscanf_r+0x7e4>
   13dd4:	00200793          	li	a5,2
   13dd8:	e2fc94e3          	bne	s9,a5,13c00 <__svfscanf_r+0x7d8>
   13ddc:	00300c93          	li	s9,3
   13de0:	df5ff06f          	j	13bd4 <__svfscanf_r+0x7ac>
   13de4:	500a7793          	andi	a5,s4,1280
   13de8:	40000693          	li	a3,1024
   13dec:	00d78863          	beq	a5,a3,13dfc <__svfscanf_r+0x9d4>
   13df0:	400a7793          	andi	a5,s4,1024
   13df4:	e00786e3          	beqz	a5,13c00 <__svfscanf_r+0x7d8>
   13df8:	fc0b8ae3          	beqz	s7,13dcc <__svfscanf_r+0x9a4>
   13dfc:	200a7793          	andi	a5,s4,512
   13e00:	02079c63          	bnez	a5,13e38 <__svfscanf_r+0xa10>
   13e04:	fffff7b7          	lui	a5,0xfffff
   13e08:	afc78793          	addi	a5,a5,-1284 # ffffeafc <__BSS_END__+0xfffccfa8>
   13e0c:	008787b3          	add	a5,a5,s0
   13e10:	0007a783          	lw	a5,0(a5)
   13e14:	fffff6b7          	lui	a3,0xfffff
   13e18:	af068693          	addi	a3,a3,-1296 # ffffeaf0 <__BSS_END__+0xfffccf9c>
   13e1c:	40fb87b3          	sub	a5,s7,a5
   13e20:	008686b3          	add	a3,a3,s0
   13e24:	00f6a023          	sw	a5,0(a3)
   13e28:	fffff7b7          	lui	a5,0xfffff
   13e2c:	aec78793          	addi	a5,a5,-1300 # ffffeaec <__BSS_END__+0xfffccf98>
   13e30:	008787b3          	add	a5,a5,s0
   13e34:	0187a023          	sw	s8,0(a5)
   13e38:	87fa7a13          	andi	s4,s4,-1921
   13e3c:	180a6a13          	ori	s4,s4,384
   13e40:	00000b93          	li	s7,0
   13e44:	d91ff06f          	j	13bd4 <__svfscanf_r+0x7ac>
   13e48:	00100793          	li	a5,1
   13e4c:	dafb1ae3          	bne	s6,a5,13c00 <__svfscanf_r+0x7d8>
   13e50:	00200b13          	li	s6,2
   13e54:	d81ff06f          	j	13bd4 <__svfscanf_r+0x7ac>
   13e58:	080a7793          	andi	a5,s4,128
   13e5c:	da0782e3          	beqz	a5,13c00 <__svfscanf_r+0x7d8>
   13e60:	f7fa7a13          	andi	s4,s4,-129
   13e64:	d71ff06f          	j	13bd4 <__svfscanf_r+0x7ac>
   13e68:	100a7793          	andi	a5,s4,256
   13e6c:	d4078ee3          	beqz	a5,13bc8 <__svfscanf_r+0x7a0>
   13e70:	fffff7b7          	lui	a5,0xfffff
   13e74:	af478793          	addi	a5,a5,-1292 # ffffeaf4 <__BSS_END__+0xfffccfa0>
   13e78:	008787b3          	add	a5,a5,s0
   13e7c:	0007a783          	lw	a5,0(a5)
   13e80:	f7fa7a13          	andi	s4,s4,-129
   13e84:	001b8b93          	addi	s7,s7,1
   13e88:	00079463          	bnez	a5,13e90 <__svfscanf_r+0xa68>
   13e8c:	2640106f          	j	150f0 <__svfscanf_r+0x1cc8>
   13e90:	fffff7b7          	lui	a5,0xfffff
   13e94:	af478793          	addi	a5,a5,-1292 # ffffeaf4 <__BSS_END__+0xfffccfa0>
   13e98:	008787b3          	add	a5,a5,s0
   13e9c:	0007a783          	lw	a5,0(a5)
   13ea0:	fffff6b7          	lui	a3,0xfffff
   13ea4:	af468693          	addi	a3,a3,-1292 # ffffeaf4 <__BSS_END__+0xfffccfa0>
   13ea8:	fff78793          	addi	a5,a5,-1
   13eac:	008686b3          	add	a3,a3,s0
   13eb0:	00f6a023          	sw	a5,0(a3)
   13eb4:	004da783          	lw	a5,4(s11)
   13eb8:	001d0d13          	addi	s10,s10,1
   13ebc:	fff78793          	addi	a5,a5,-1
   13ec0:	00fda223          	sw	a5,4(s11)
   13ec4:	d2f048e3          	bgtz	a5,13bf4 <__svfscanf_r+0x7cc>
   13ec8:	fffff7b7          	lui	a5,0xfffff
   13ecc:	b1c78793          	addi	a5,a5,-1252 # ffffeb1c <__BSS_END__+0xfffccfc8>
   13ed0:	008787b3          	add	a5,a5,s0
   13ed4:	0007a503          	lw	a0,0(a5)
   13ed8:	000d8593          	mv	a1,s11
   13edc:	2a4080ef          	jal	ra,1c180 <__srefill_r>
   13ee0:	04e00e93          	li	t4,78
   13ee4:	0001b617          	auipc	a2,0x1b
   13ee8:	5b460613          	addi	a2,a2,1460 # 2f498 <zeroes.4505+0x1ac>
   13eec:	d0051ae3          	bnez	a0,13c00 <__svfscanf_r+0x7d8>
   13ef0:	98091ee3          	bnez	s2,1388c <__svfscanf_r+0x464>
   13ef4:	d0dff06f          	j	13c00 <__svfscanf_r+0x7d8>
   13ef8:	00600793          	li	a5,6
   13efc:	d0fc92e3          	bne	s9,a5,13c00 <__svfscanf_r+0x7d8>
   13f00:	00700c93          	li	s9,7
   13f04:	cd1ff06f          	j	13bd4 <__svfscanf_r+0x7ac>
   13f08:	480b18e3          	bnez	s6,14b98 <__svfscanf_r+0x1770>
   13f0c:	000b9a63          	bnez	s7,13f20 <__svfscanf_r+0xaf8>
   13f10:	700a7793          	andi	a5,s4,1792
   13f14:	70000513          	li	a0,1792
   13f18:	00a79463          	bne	a5,a0,13f20 <__svfscanf_r+0xaf8>
   13f1c:	23d0106f          	j	15958 <__svfscanf_r+0x2530>
   13f20:	00100793          	li	a5,1
   13f24:	00fc8663          	beq	s9,a5,13f30 <__svfscanf_r+0xb08>
   13f28:	00400793          	li	a5,4
   13f2c:	ccfc9ae3          	bne	s9,a5,13c00 <__svfscanf_r+0x7d8>
   13f30:	001c8c93          	addi	s9,s9,1
   13f34:	0ffcfc93          	andi	s9,s9,255
   13f38:	c9dff06f          	j	13bd4 <__svfscanf_r+0x7ac>
   13f3c:	fffff7b7          	lui	a5,0xfffff
   13f40:	af878793          	addi	a5,a5,-1288 # ffffeaf8 <__BSS_END__+0xfffccfa4>
   13f44:	008787b3          	add	a5,a5,s0
   13f48:	0007a783          	lw	a5,0(a5)
   13f4c:	0007c783          	lbu	a5,0(a5)
   13f50:	cab798e3          	bne	a5,a1,13c00 <__svfscanf_r+0x7d8>
   13f54:	200a7793          	andi	a5,s4,512
   13f58:	ca0784e3          	beqz	a5,13c00 <__svfscanf_r+0x7d8>
   13f5c:	fffff7b7          	lui	a5,0xfffff
   13f60:	afc78793          	addi	a5,a5,-1284 # ffffeafc <__BSS_END__+0xfffccfa8>
   13f64:	008787b3          	add	a5,a5,s0
   13f68:	d7fa7a13          	andi	s4,s4,-641
   13f6c:	0177a023          	sw	s7,0(a5)
   13f70:	c65ff06f          	j	13bd4 <__svfscanf_r+0x7ac>
   13f74:	001c6c13          	ori	s8,s8,1
   13f78:	004da783          	lw	a5,4(s11)
   13f7c:	00200913          	li	s2,2
   13f80:	80f04ce3          	bgtz	a5,13798 <__svfscanf_r+0x370>
   13f84:	fffff7b7          	lui	a5,0xfffff
   13f88:	b1c78793          	addi	a5,a5,-1252 # ffffeb1c <__BSS_END__+0xfffccfc8>
   13f8c:	008787b3          	add	a5,a5,s0
   13f90:	0007a503          	lw	a0,0(a5)
   13f94:	000d8593          	mv	a1,s11
   13f98:	1e8080ef          	jal	ra,1c180 <__srefill_r>
   13f9c:	fe050e63          	beqz	a0,13798 <__svfscanf_r+0x370>
   13fa0:	fffff7b7          	lui	a5,0xfffff
   13fa4:	b1478793          	addi	a5,a5,-1260 # ffffeb14 <__BSS_END__+0xfffccfc0>
   13fa8:	008787b3          	add	a5,a5,s0
   13fac:	0007a783          	lw	a5,0(a5)
   13fb0:	00079463          	bnez	a5,13fb8 <__svfscanf_r+0xb90>
   13fb4:	5590106f          	j	15d0c <__svfscanf_r+0x28e4>
   13fb8:	00cdd783          	lhu	a5,12(s11)
   13fbc:	0407f793          	andi	a5,a5,64
   13fc0:	e4078863          	beqz	a5,13610 <__svfscanf_r+0x1e8>
   13fc4:	fffff7b7          	lui	a5,0xfffff
   13fc8:	b1078793          	addi	a5,a5,-1264 # ffffeb10 <__BSS_END__+0xfffccfbc>
   13fcc:	008787b3          	add	a5,a5,s0
   13fd0:	0007a783          	lw	a5,0(a5)
   13fd4:	00079463          	bnez	a5,13fdc <__svfscanf_r+0xbb4>
   13fd8:	4d50106f          	j	15cac <__svfscanf_r+0x2884>
   13fdc:	0007a903          	lw	s2,0(a5)
   13fe0:	0067d783          	lhu	a5,6(a5)
   13fe4:	00279993          	slli	s3,a5,0x2
   13fe8:	00090493          	mv	s1,s2
   13fec:	012989b3          	add	s3,s3,s2
   13ff0:	02078063          	beqz	a5,14010 <__svfscanf_r+0xbe8>
   13ff4:	0004a783          	lw	a5,0(s1)
   13ff8:	00448493          	addi	s1,s1,4
   13ffc:	0007a503          	lw	a0,0(a5)
   14000:	765050ef          	jal	ra,19f64 <free>
   14004:	ffc4a783          	lw	a5,-4(s1)
   14008:	0007a023          	sw	zero,0(a5)
   1400c:	ff3494e3          	bne	s1,s3,13ff4 <__svfscanf_r+0xbcc>
   14010:	fffff737          	lui	a4,0xfffff
   14014:	b1470713          	addi	a4,a4,-1260 # ffffeb14 <__BSS_END__+0xfffccfc0>
   14018:	fff00793          	li	a5,-1
   1401c:	00870733          	add	a4,a4,s0
   14020:	00f72023          	sw	a5,0(a4)
   14024:	e14ff06f          	j	13638 <__svfscanf_r+0x210>
   14028:	001c6c13          	ori	s8,s8,1
   1402c:	0000b797          	auipc	a5,0xb
   14030:	8e078793          	addi	a5,a5,-1824 # 1e90c <_strtol_r>
   14034:	fffff737          	lui	a4,0xfffff
   14038:	b0070713          	addi	a4,a4,-1280 # ffffeb00 <__BSS_END__+0xfffccfac>
   1403c:	00870733          	add	a4,a4,s0
   14040:	00f72023          	sw	a5,0(a4)
   14044:	00a00793          	li	a5,10
   14048:	f34ff06f          	j	1377c <__svfscanf_r+0x354>
   1404c:	001c6c13          	ori	s8,s8,1
   14050:	040c6c13          	ori	s8,s8,64
   14054:	00000913          	li	s2,0
   14058:	004da783          	lw	a5,4(s11)
   1405c:	f4f04263          	bgtz	a5,137a0 <__svfscanf_r+0x378>
   14060:	fffff7b7          	lui	a5,0xfffff
   14064:	b1c78793          	addi	a5,a5,-1252 # ffffeb1c <__BSS_END__+0xfffccfc8>
   14068:	008787b3          	add	a5,a5,s0
   1406c:	0007a503          	lw	a0,0(a5)
   14070:	000d8593          	mv	a1,s11
   14074:	10c080ef          	jal	ra,1c180 <__srefill_r>
   14078:	f2050063          	beqz	a0,13798 <__svfscanf_r+0x370>
   1407c:	f25ff06f          	j	13fa0 <__svfscanf_r+0xb78>
   14080:	08fc7793          	andi	a5,s8,143
   14084:	d8079663          	bnez	a5,13610 <__svfscanf_r+0x1e8>
   14088:	002b9793          	slli	a5,s7,0x2
   1408c:	01778bb3          	add	s7,a5,s7
   14090:	001b9b93          	slli	s7,s7,0x1
   14094:	00cb8bb3          	add	s7,s7,a2
   14098:	fd0b8b93          	addi	s7,s7,-48
   1409c:	eb4ff06f          	j	13750 <__svfscanf_r+0x328>
   140a0:	00400913          	li	s2,4
   140a4:	eecff06f          	j	13790 <__svfscanf_r+0x368>
   140a8:	fffff737          	lui	a4,0xfffff
   140ac:	b0070713          	addi	a4,a4,-1280 # ffffeb00 <__BSS_END__+0xfffccfac>
   140b0:	0000b797          	auipc	a5,0xb
   140b4:	85c78793          	addi	a5,a5,-1956 # 1e90c <_strtol_r>
   140b8:	00870733          	add	a4,a4,s0
   140bc:	00f72023          	sw	a5,0(a4)
   140c0:	fffff7b7          	lui	a5,0xfffff
   140c4:	b0478793          	addi	a5,a5,-1276 # ffffeb04 <__BSS_END__+0xfffccfb0>
   140c8:	008787b3          	add	a5,a5,s0
   140cc:	0007a023          	sw	zero,0(a5)
   140d0:	00300913          	li	s2,3
   140d4:	ebcff06f          	j	13790 <__svfscanf_r+0x368>
   140d8:	00fc7793          	andi	a5,s8,15
   140dc:	d2079a63          	bnez	a5,13610 <__svfscanf_r+0x1e8>
   140e0:	00194603          	lbu	a2,1(s2)
   140e4:	01d61463          	bne	a2,t4,140ec <__svfscanf_r+0xcc4>
   140e8:	1840106f          	j	1526c <__svfscanf_r+0x1e44>
   140ec:	004c6c13          	ori	s8,s8,4
   140f0:	000a8913          	mv	s2,s5
   140f4:	cacff06f          	j	135a0 <__svfscanf_r+0x178>
   140f8:	fffff7b7          	lui	a5,0xfffff
   140fc:	b9078513          	addi	a0,a5,-1136 # ffffeb90 <__BSS_END__+0xfffcd03c>
   14100:	fc040793          	addi	a5,s0,-64
   14104:	000a8593          	mv	a1,s5
   14108:	00a78533          	add	a0,a5,a0
   1410c:	2cc080ef          	jal	ra,1c3d8 <__sccl>
   14110:	00050a93          	mv	s5,a0
   14114:	040c6c13          	ori	s8,s8,64
   14118:	00100913          	li	s2,1
   1411c:	f3dff06f          	j	14058 <__svfscanf_r+0xc30>
   14120:	200c6c13          	ori	s8,s8,512
   14124:	fffff737          	lui	a4,0xfffff
   14128:	b0070713          	addi	a4,a4,-1280 # ffffeb00 <__BSS_END__+0xfffccfac>
   1412c:	0000b797          	auipc	a5,0xb
   14130:	f4c78793          	addi	a5,a5,-180 # 1f078 <_strtoul_r>
   14134:	00870733          	add	a4,a4,s0
   14138:	00f72023          	sw	a5,0(a4)
   1413c:	01000793          	li	a5,16
   14140:	e3cff06f          	j	1377c <__svfscanf_r+0x354>
   14144:	0000b797          	auipc	a5,0xb
   14148:	f3478793          	addi	a5,a5,-204 # 1f078 <_strtoul_r>
   1414c:	ee9ff06f          	j	14034 <__svfscanf_r+0xc0c>
   14150:	220c6c13          	ori	s8,s8,544
   14154:	fd1ff06f          	j	14124 <__svfscanf_r+0xcfc>
   14158:	00fc7793          	andi	a5,s8,15
   1415c:	ca079a63          	bnez	a5,13610 <__svfscanf_r+0x1e8>
   14160:	00194603          	lbu	a2,1(s2)
   14164:	00a61463          	bne	a2,a0,1416c <__svfscanf_r+0xd44>
   14168:	1140106f          	j	1527c <__svfscanf_r+0x1e54>
   1416c:	001c6c13          	ori	s8,s8,1
   14170:	000a8913          	mv	s2,s5
   14174:	c2cff06f          	j	135a0 <__svfscanf_r+0x178>
   14178:	010c7793          	andi	a5,s8,16
   1417c:	bc079a63          	bnez	a5,13550 <__svfscanf_r+0x128>
   14180:	fffff737          	lui	a4,0xfffff
   14184:	b0c70713          	addi	a4,a4,-1268 # ffffeb0c <__BSS_END__+0xfffccfb8>
   14188:	00870733          	add	a4,a4,s0
   1418c:	00072703          	lw	a4,0(a4)
   14190:	008c7793          	andi	a5,s8,8
   14194:	00470693          	addi	a3,a4,4
   14198:	00072703          	lw	a4,0(a4)
   1419c:	00079463          	bnez	a5,141a4 <__svfscanf_r+0xd7c>
   141a0:	7740106f          	j	15914 <__svfscanf_r+0x24ec>
   141a4:	fffff7b7          	lui	a5,0xfffff
   141a8:	b0c78793          	addi	a5,a5,-1268 # ffffeb0c <__BSS_END__+0xfffccfb8>
   141ac:	008787b3          	add	a5,a5,s0
   141b0:	01a70023          	sb	s10,0(a4)
   141b4:	00d7a023          	sw	a3,0(a5)
   141b8:	b98ff06f          	j	13550 <__svfscanf_r+0x128>
   141bc:	08fc7793          	andi	a5,s8,143
   141c0:	c4079863          	bnez	a5,13610 <__svfscanf_r+0x1e8>
   141c4:	fffff7b7          	lui	a5,0xfffff
   141c8:	b1078793          	addi	a5,a5,-1264 # ffffeb10 <__BSS_END__+0xfffccfbc>
   141cc:	008787b3          	add	a5,a5,s0
   141d0:	0007a783          	lw	a5,0(a5)
   141d4:	00079463          	bnez	a5,141dc <__svfscanf_r+0xdb4>
   141d8:	1f80106f          	j	153d0 <__svfscanf_r+0x1fa8>
   141dc:	00194603          	lbu	a2,1(s2)
   141e0:	080c6c13          	ori	s8,s8,128
   141e4:	000a8913          	mv	s2,s5
   141e8:	bb8ff06f          	j	135a0 <__svfscanf_r+0x178>
   141ec:	018bebb3          	or	s7,s7,s8
   141f0:	c20b9063          	bnez	s7,13610 <__svfscanf_r+0x1e8>
   141f4:	00194603          	lbu	a2,1(s2)
   141f8:	01000c13          	li	s8,16
   141fc:	000a8913          	mv	s2,s5
   14200:	ba0ff06f          	j	135a0 <__svfscanf_r+0x178>
   14204:	00100793          	li	a5,1
   14208:	3af91063          	bne	s2,a5,145a8 <__svfscanf_r+0x1180>
   1420c:	000b9463          	bnez	s7,14214 <__svfscanf_r+0xdec>
   14210:	fff00b93          	li	s7,-1
   14214:	fffff737          	lui	a4,0xfffff
   14218:	afc70713          	addi	a4,a4,-1284 # ffffeafc <__BSS_END__+0xfffccfa8>
   1421c:	010c7793          	andi	a5,s8,16
   14220:	00870733          	add	a4,a4,s0
   14224:	001c7913          	andi	s2,s8,1
   14228:	00f72023          	sw	a5,0(a4)
   1422c:	16090ee3          	beqz	s2,14ba8 <__svfscanf_r+0x1780>
   14230:	00078463          	beqz	a5,14238 <__svfscanf_r+0xe10>
   14234:	0f00106f          	j	15324 <__svfscanf_r+0x1efc>
   14238:	fffff7b7          	lui	a5,0xfffff
   1423c:	b0c78793          	addi	a5,a5,-1268 # ffffeb0c <__BSS_END__+0xfffccfb8>
   14240:	008787b3          	add	a5,a5,s0
   14244:	0007a783          	lw	a5,0(a5)
   14248:	fffff6b7          	lui	a3,0xfffff
   1424c:	af068693          	addi	a3,a3,-1296 # ffffeaf0 <__BSS_END__+0xfffccf9c>
   14250:	00478713          	addi	a4,a5,4
   14254:	008686b3          	add	a3,a3,s0
   14258:	080c7e13          	andi	t3,s8,128
   1425c:	00e6a023          	sw	a4,0(a3)
   14260:	0007ac03          	lw	s8,0(a5)
   14264:	000e1463          	bnez	t3,1426c <__svfscanf_r+0xe44>
   14268:	0dd0106f          	j	15b44 <__svfscanf_r+0x271c>
   1426c:	cc0c0063          	beqz	s8,1372c <__svfscanf_r+0x304>
   14270:	08000513          	li	a0,128
   14274:	4e1050ef          	jal	ra,19f54 <malloc>
   14278:	00050a13          	mv	s4,a0
   1427c:	00051463          	bnez	a0,14284 <__svfscanf_r+0xe5c>
   14280:	1f90106f          	j	15c78 <__svfscanf_r+0x2850>
   14284:	fffff7b7          	lui	a5,0xfffff
   14288:	b1078793          	addi	a5,a5,-1264 # ffffeb10 <__BSS_END__+0xfffccfbc>
   1428c:	008787b3          	add	a5,a5,s0
   14290:	0007a703          	lw	a4,0(a5)
   14294:	00ac2023          	sw	a0,0(s8)
   14298:	00675c83          	lhu	s9,6(a4)
   1429c:	00475783          	lhu	a5,4(a4)
   142a0:	00fce463          	bltu	s9,a5,142a8 <__svfscanf_r+0xe80>
   142a4:	4a80106f          	j	1574c <__svfscanf_r+0x2324>
   142a8:	00072503          	lw	a0,0(a4)
   142ac:	002c9793          	slli	a5,s9,0x2
   142b0:	00f50533          	add	a0,a0,a5
   142b4:	fffff7b7          	lui	a5,0xfffff
   142b8:	b1078793          	addi	a5,a5,-1264 # ffffeb10 <__BSS_END__+0xfffccfbc>
   142bc:	008787b3          	add	a5,a5,s0
   142c0:	0007a783          	lw	a5,0(a5)
   142c4:	001c8c93          	addi	s9,s9,1
   142c8:	fffff737          	lui	a4,0xfffff
   142cc:	01979323          	sh	s9,6(a5)
   142d0:	fffff7b7          	lui	a5,0xfffff
   142d4:	af878793          	addi	a5,a5,-1288 # ffffeaf8 <__BSS_END__+0xfffccfa4>
   142d8:	008787b3          	add	a5,a5,s0
   142dc:	af470713          	addi	a4,a4,-1292 # ffffeaf4 <__BSS_END__+0xfffccfa0>
   142e0:	0147a023          	sw	s4,0(a5)
   142e4:	00870733          	add	a4,a4,s0
   142e8:	02000793          	li	a5,32
   142ec:	01852023          	sw	s8,0(a0)
   142f0:	00f72023          	sw	a5,0(a4)
   142f4:	fffff7b7          	lui	a5,0xfffff
   142f8:	b8078b13          	addi	s6,a5,-1152 # ffffeb80 <__BSS_END__+0xfffcd02c>
   142fc:	fc040793          	addi	a5,s0,-64
   14300:	01678b33          	add	s6,a5,s6
   14304:	fffff7b7          	lui	a5,0xfffff
   14308:	b0c78793          	addi	a5,a5,-1268 # ffffeb0c <__BSS_END__+0xfffccfb8>
   1430c:	008787b3          	add	a5,a5,s0
   14310:	0187a023          	sw	s8,0(a5)
   14314:	fffff7b7          	lui	a5,0xfffff
   14318:	aec78793          	addi	a5,a5,-1300 # ffffeaec <__BSS_END__+0xfffccf98>
   1431c:	008787b3          	add	a5,a5,s0
   14320:	0157a023          	sw	s5,0(a5)
   14324:	fffff7b7          	lui	a5,0xfffff
   14328:	b1c78793          	addi	a5,a5,-1252 # ffffeb1c <__BSS_END__+0xfffccfc8>
   1432c:	008787b3          	add	a5,a5,s0
   14330:	0007aa83          	lw	s5,0(a5)
   14334:	fffff7b7          	lui	a5,0xfffff
   14338:	b1878793          	addi	a5,a5,-1256 # ffffeb18 <__BSS_END__+0xfffccfc4>
   1433c:	00000c93          	li	s9,0
   14340:	008787b3          	add	a5,a5,s0
   14344:	00048c13          	mv	s8,s1
   14348:	000d8493          	mv	s1,s11
   1434c:	000c8d93          	mv	s11,s9
   14350:	0007ac83          	lw	s9,0(a5)
   14354:	1f5050ef          	jal	ra,19d48 <__locale_mb_cur_max>
   14358:	01b51463          	bne	a0,s11,14360 <__svfscanf_r+0xf38>
   1435c:	1080106f          	j	15464 <__svfscanf_r+0x203c>
   14360:	0004a703          	lw	a4,0(s1)
   14364:	0044a603          	lw	a2,4(s1)
   14368:	01b985b3          	add	a1,s3,s11
   1436c:	00074503          	lbu	a0,0(a4)
   14370:	fff60613          	addi	a2,a2,-1
   14374:	00170713          	addi	a4,a4,1
   14378:	00e4a023          	sw	a4,0(s1)
   1437c:	c8a58823          	sb	a0,-880(a1)
   14380:	00c4a223          	sw	a2,4(s1)
   14384:	00300713          	li	a4,3
   14388:	001d8913          	addi	s2,s11,1
   1438c:	00ec1863          	bne	s8,a4,1439c <__svfscanf_r+0xf74>
   14390:	b809a683          	lw	a3,-1152(s3)
   14394:	00400713          	li	a4,4
   14398:	00e68a63          	beq	a3,a4,143ac <__svfscanf_r+0xf84>
   1439c:	00800613          	li	a2,8
   143a0:	00000593          	li	a1,0
   143a4:	000b0513          	mv	a0,s6
   143a8:	ab0fc0ef          	jal	ra,10658 <memset>
   143ac:	000c8613          	mv	a2,s9
   143b0:	000b0713          	mv	a4,s6
   143b4:	00090693          	mv	a3,s2
   143b8:	000a0593          	mv	a1,s4
   143bc:	000a8513          	mv	a0,s5
   143c0:	380060ef          	jal	ra,1a740 <_mbrtowc_r>
   143c4:	fff00613          	li	a2,-1
   143c8:	00050c13          	mv	s8,a0
   143cc:	00c51463          	bne	a0,a2,143d4 <__svfscanf_r+0xfac>
   143d0:	0940106f          	j	15464 <__svfscanf_r+0x203c>
   143d4:	00050463          	beqz	a0,143dc <__svfscanf_r+0xfb4>
   143d8:	0400106f          	j	15418 <__svfscanf_r+0x1ff0>
   143dc:	000a2023          	sw	zero,0(s4)
   143e0:	00000d93          	li	s11,0
   143e4:	fffff7b7          	lui	a5,0xfffff
   143e8:	b0878793          	addi	a5,a5,-1272 # ffffeb08 <__BSS_END__+0xfffccfb4>
   143ec:	008787b3          	add	a5,a5,s0
   143f0:	0007a503          	lw	a0,0(a5)
   143f4:	00800613          	li	a2,8
   143f8:	00000593          	li	a1,0
   143fc:	a5cfc0ef          	jal	ra,10658 <memset>
   14400:	fffff7b7          	lui	a5,0xfffff
   14404:	b7878593          	addi	a1,a5,-1160 # ffffeb78 <__BSS_END__+0xfffcd024>
   14408:	b0878793          	addi	a5,a5,-1272
   1440c:	c2818693          	addi	a3,gp,-984 # 314e8 <__global_locale>
   14410:	008787b3          	add	a5,a5,s0
   14414:	0e06a883          	lw	a7,224(a3)
   14418:	0007a683          	lw	a3,0(a5)
   1441c:	fc040793          	addi	a5,s0,-64
   14420:	000d8613          	mv	a2,s11
   14424:	00b785b3          	add	a1,a5,a1
   14428:	000a8513          	mv	a0,s5
   1442c:	000880e7          	jalr	a7
   14430:	00100693          	li	a3,1
   14434:	00000d93          	li	s11,0
   14438:	00d51463          	bne	a0,a3,14440 <__svfscanf_r+0x1018>
   1443c:	b789cd83          	lbu	s11,-1160(s3)
   14440:	01b98733          	add	a4,s3,s11
   14444:	b9074703          	lbu	a4,-1136(a4)
   14448:	00071463          	bnez	a4,14450 <__svfscanf_r+0x1028>
   1444c:	7600106f          	j	15bac <__svfscanf_r+0x2784>
   14450:	00300713          	li	a4,3
   14454:	012d0d33          	add	s10,s10,s2
   14458:	46ec08e3          	beq	s8,a4,150c8 <__svfscanf_r+0x1ca0>
   1445c:	fffff7b7          	lui	a5,0xfffff
   14460:	afc78793          	addi	a5,a5,-1284 # ffffeafc <__BSS_END__+0xfffccfa8>
   14464:	008787b3          	add	a5,a5,s0
   14468:	0007a783          	lw	a5,0(a5)
   1446c:	fffb8b93          	addi	s7,s7,-1
   14470:	46079ce3          	bnez	a5,150e8 <__svfscanf_r+0x1cc0>
   14474:	fffff7b7          	lui	a5,0xfffff
   14478:	b0c78793          	addi	a5,a5,-1268 # ffffeb0c <__BSS_END__+0xfffccfb8>
   1447c:	008787b3          	add	a5,a5,s0
   14480:	0007a783          	lw	a5,0(a5)
   14484:	004a0a13          	addi	s4,s4,4
   14488:	460780e3          	beqz	a5,150e8 <__svfscanf_r+0x1cc0>
   1448c:	fffff7b7          	lui	a5,0xfffff
   14490:	af878793          	addi	a5,a5,-1288 # ffffeaf8 <__BSS_END__+0xfffccfa4>
   14494:	008787b3          	add	a5,a5,s0
   14498:	0007a783          	lw	a5,0(a5)
   1449c:	00000d93          	li	s11,0
   144a0:	40fa0933          	sub	s2,s4,a5
   144a4:	fffff7b7          	lui	a5,0xfffff
   144a8:	af478793          	addi	a5,a5,-1292 # ffffeaf4 <__BSS_END__+0xfffccfa0>
   144ac:	008787b3          	add	a5,a5,s0
   144b0:	0007a783          	lw	a5,0(a5)
   144b4:	40295713          	srai	a4,s2,0x2
   144b8:	00f76463          	bltu	a4,a5,144c0 <__svfscanf_r+0x1098>
   144bc:	0d00106f          	j	1558c <__svfscanf_r+0x2164>
   144c0:	0044a703          	lw	a4,4(s1)
   144c4:	3ce050e3          	blez	a4,15084 <__svfscanf_r+0x1c5c>
   144c8:	e80b96e3          	bnez	s7,14354 <__svfscanf_r+0xf2c>
   144cc:	fffff7b7          	lui	a5,0xfffff
   144d0:	b0c78793          	addi	a5,a5,-1268 # ffffeb0c <__BSS_END__+0xfffccfb8>
   144d4:	008787b3          	add	a5,a5,s0
   144d8:	00048d93          	mv	s11,s1
   144dc:	000c0493          	mv	s1,s8
   144e0:	0007ac03          	lw	s8,0(a5)
   144e4:	fffff7b7          	lui	a5,0xfffff
   144e8:	aec78793          	addi	a5,a5,-1300 # ffffeaec <__BSS_END__+0xfffccf98>
   144ec:	008787b3          	add	a5,a5,s0
   144f0:	0007aa83          	lw	s5,0(a5)
   144f4:	fffff7b7          	lui	a5,0xfffff
   144f8:	afc78793          	addi	a5,a5,-1284 # ffffeafc <__BSS_END__+0xfffccfa8>
   144fc:	008787b3          	add	a5,a5,s0
   14500:	0007a783          	lw	a5,0(a5)
   14504:	06079a63          	bnez	a5,14578 <__svfscanf_r+0x1150>
   14508:	000a2023          	sw	zero,0(s4)
   1450c:	040c0463          	beqz	s8,14554 <__svfscanf_r+0x112c>
   14510:	fffff7b7          	lui	a5,0xfffff
   14514:	af878793          	addi	a5,a5,-1288 # ffffeaf8 <__BSS_END__+0xfffccfa4>
   14518:	008787b3          	add	a5,a5,s0
   1451c:	0007a783          	lw	a5,0(a5)
   14520:	40fa05b3          	sub	a1,s4,a5
   14524:	fffff7b7          	lui	a5,0xfffff
   14528:	af478793          	addi	a5,a5,-1292 # ffffeaf4 <__BSS_END__+0xfffccfa0>
   1452c:	008787b3          	add	a5,a5,s0
   14530:	0007a783          	lw	a5,0(a5)
   14534:	4025d593          	srai	a1,a1,0x2
   14538:	00158593          	addi	a1,a1,1
   1453c:	00f5fc63          	bgeu	a1,a5,14554 <__svfscanf_r+0x112c>
   14540:	000c2503          	lw	a0,0(s8)
   14544:	00259593          	slli	a1,a1,0x2
   14548:	638070ef          	jal	ra,1bb80 <realloc>
   1454c:	00050463          	beqz	a0,14554 <__svfscanf_r+0x112c>
   14550:	00ac2023          	sw	a0,0(s8)
   14554:	fffff7b7          	lui	a5,0xfffff
   14558:	b1478793          	addi	a5,a5,-1260 # ffffeb14 <__BSS_END__+0xfffccfc0>
   1455c:	008787b3          	add	a5,a5,s0
   14560:	0007a783          	lw	a5,0(a5)
   14564:	fffff737          	lui	a4,0xfffff
   14568:	b1470713          	addi	a4,a4,-1260 # ffffeb14 <__BSS_END__+0xfffccfc0>
   1456c:	00178793          	addi	a5,a5,1
   14570:	00870733          	add	a4,a4,s0
   14574:	00f72023          	sw	a5,0(a4)
   14578:	fffff7b7          	lui	a5,0xfffff
   1457c:	af078793          	addi	a5,a5,-1296 # ffffeaf0 <__BSS_END__+0xfffccf9c>
   14580:	2e80006f          	j	14868 <__svfscanf_r+0x1440>
   14584:	fffff7b7          	lui	a5,0xfffff
   14588:	b1c78793          	addi	a5,a5,-1252 # ffffeb1c <__BSS_END__+0xfffccfc8>
   1458c:	008787b3          	add	a5,a5,s0
   14590:	0007a503          	lw	a0,0(a5)
   14594:	000d8593          	mv	a1,s11
   14598:	3e9070ef          	jal	ra,1c180 <__srefill_r>
   1459c:	00051463          	bnez	a0,145a4 <__svfscanf_r+0x117c>
   145a0:	834ff06f          	j	135d4 <__svfscanf_r+0x1ac>
   145a4:	9fdff06f          	j	13fa0 <__svfscanf_r+0xb78>
   145a8:	000b9463          	bnez	s7,145b0 <__svfscanf_r+0x1188>
   145ac:	00100b93          	li	s7,1
   145b0:	001c7793          	andi	a5,s8,1
   145b4:	010c7b13          	andi	s6,s8,16
   145b8:	120784e3          	beqz	a5,14ee0 <__svfscanf_r+0x1ab8>
   145bc:	5a0b1ee3          	bnez	s6,15378 <__svfscanf_r+0x1f50>
   145c0:	fffff7b7          	lui	a5,0xfffff
   145c4:	b0c78793          	addi	a5,a5,-1268 # ffffeb0c <__BSS_END__+0xfffccfb8>
   145c8:	008787b3          	add	a5,a5,s0
   145cc:	0007a783          	lw	a5,0(a5)
   145d0:	fffff6b7          	lui	a3,0xfffff
   145d4:	af468693          	addi	a3,a3,-1292 # ffffeaf4 <__BSS_END__+0xfffccfa0>
   145d8:	00478713          	addi	a4,a5,4
   145dc:	008686b3          	add	a3,a3,s0
   145e0:	00e6a023          	sw	a4,0(a3)
   145e4:	0007a783          	lw	a5,0(a5)
   145e8:	fffff737          	lui	a4,0xfffff
   145ec:	b0c70713          	addi	a4,a4,-1268 # ffffeb0c <__BSS_END__+0xfffccfb8>
   145f0:	00870733          	add	a4,a4,s0
   145f4:	080c7e13          	andi	t3,s8,128
   145f8:	00f72023          	sw	a5,0(a4)
   145fc:	000e1463          	bnez	t3,14604 <__svfscanf_r+0x11dc>
   14600:	5000106f          	j	15b00 <__svfscanf_r+0x26d8>
   14604:	92078463          	beqz	a5,1372c <__svfscanf_r+0x304>
   14608:	08000513          	li	a0,128
   1460c:	149050ef          	jal	ra,19f54 <malloc>
   14610:	00050a13          	mv	s4,a0
   14614:	00051463          	bnez	a0,1461c <__svfscanf_r+0x11f4>
   14618:	6600106f          	j	15c78 <__svfscanf_r+0x2850>
   1461c:	fffff7b7          	lui	a5,0xfffff
   14620:	b1078793          	addi	a5,a5,-1264 # ffffeb10 <__BSS_END__+0xfffccfbc>
   14624:	008787b3          	add	a5,a5,s0
   14628:	fffff6b7          	lui	a3,0xfffff
   1462c:	0007a703          	lw	a4,0(a5)
   14630:	b0c68693          	addi	a3,a3,-1268 # ffffeb0c <__BSS_END__+0xfffccfb8>
   14634:	008686b3          	add	a3,a3,s0
   14638:	0006a683          	lw	a3,0(a3)
   1463c:	00675c83          	lhu	s9,6(a4)
   14640:	00475783          	lhu	a5,4(a4)
   14644:	00a6a023          	sw	a0,0(a3)
   14648:	00fce463          	bltu	s9,a5,14650 <__svfscanf_r+0x1228>
   1464c:	1b80106f          	j	15804 <__svfscanf_r+0x23dc>
   14650:	00072503          	lw	a0,0(a4)
   14654:	002c9793          	slli	a5,s9,0x2
   14658:	00f50533          	add	a0,a0,a5
   1465c:	fffff7b7          	lui	a5,0xfffff
   14660:	b1078793          	addi	a5,a5,-1264 # ffffeb10 <__BSS_END__+0xfffccfbc>
   14664:	008787b3          	add	a5,a5,s0
   14668:	0007a783          	lw	a5,0(a5)
   1466c:	001c8c93          	addi	s9,s9,1
   14670:	fffff737          	lui	a4,0xfffff
   14674:	01979323          	sh	s9,6(a5)
   14678:	fffff7b7          	lui	a5,0xfffff
   1467c:	b0c78793          	addi	a5,a5,-1268 # ffffeb0c <__BSS_END__+0xfffccfb8>
   14680:	008787b3          	add	a5,a5,s0
   14684:	0007a783          	lw	a5,0(a5)
   14688:	afc70713          	addi	a4,a4,-1284 # ffffeafc <__BSS_END__+0xfffccfa8>
   1468c:	00870733          	add	a4,a4,s0
   14690:	00f52023          	sw	a5,0(a0)
   14694:	fffff7b7          	lui	a5,0xfffff
   14698:	af878793          	addi	a5,a5,-1288 # ffffeaf8 <__BSS_END__+0xfffccfa4>
   1469c:	008787b3          	add	a5,a5,s0
   146a0:	0147a023          	sw	s4,0(a5)
   146a4:	02000793          	li	a5,32
   146a8:	00f72023          	sw	a5,0(a4)
   146ac:	fffff737          	lui	a4,0xfffff
   146b0:	af070713          	addi	a4,a4,-1296 # ffffeaf0 <__BSS_END__+0xfffccf9c>
   146b4:	00870733          	add	a4,a4,s0
   146b8:	01572023          	sw	s5,0(a4)
   146bc:	fffff737          	lui	a4,0xfffff
   146c0:	b0870713          	addi	a4,a4,-1272 # ffffeb08 <__BSS_END__+0xfffccfb4>
   146c4:	00870733          	add	a4,a4,s0
   146c8:	00072a83          	lw	s5,0(a4)
   146cc:	000d8793          	mv	a5,s11
   146d0:	00000913          	li	s2,0
   146d4:	00048d93          	mv	s11,s1
   146d8:	00300c93          	li	s9,3
   146dc:	00400c13          	li	s8,4
   146e0:	00078493          	mv	s1,a5
   146e4:	664050ef          	jal	ra,19d48 <__locale_mb_cur_max>
   146e8:	57250ee3          	beq	a0,s2,15464 <__svfscanf_r+0x203c>
   146ec:	0004a703          	lw	a4,0(s1)
   146f0:	0044a603          	lw	a2,4(s1)
   146f4:	012985b3          	add	a1,s3,s2
   146f8:	00074503          	lbu	a0,0(a4)
   146fc:	fff60613          	addi	a2,a2,-1
   14700:	00170713          	addi	a4,a4,1
   14704:	c8a58823          	sb	a0,-880(a1)
   14708:	00c4a223          	sw	a2,4(s1)
   1470c:	00e4a023          	sw	a4,0(s1)
   14710:	00190913          	addi	s2,s2,1
   14714:	019d9663          	bne	s11,s9,14720 <__svfscanf_r+0x12f8>
   14718:	b889a703          	lw	a4,-1144(s3)
   1471c:	01870a63          	beq	a4,s8,14730 <__svfscanf_r+0x1308>
   14720:	00800613          	li	a2,8
   14724:	00000593          	li	a1,0
   14728:	000a8513          	mv	a0,s5
   1472c:	f2dfb0ef          	jal	ra,10658 <memset>
   14730:	fffff7b7          	lui	a5,0xfffff
   14734:	b1878793          	addi	a5,a5,-1256 # ffffeb18 <__BSS_END__+0xfffccfc4>
   14738:	008787b3          	add	a5,a5,s0
   1473c:	0007a603          	lw	a2,0(a5)
   14740:	fffff7b7          	lui	a5,0xfffff
   14744:	b1c78793          	addi	a5,a5,-1252 # ffffeb1c <__BSS_END__+0xfffccfc8>
   14748:	008787b3          	add	a5,a5,s0
   1474c:	0007a503          	lw	a0,0(a5)
   14750:	000a8713          	mv	a4,s5
   14754:	00090693          	mv	a3,s2
   14758:	000a0593          	mv	a1,s4
   1475c:	7e5050ef          	jal	ra,1a740 <_mbrtowc_r>
   14760:	fff00713          	li	a4,-1
   14764:	00050d93          	mv	s11,a0
   14768:	4ee50ee3          	beq	a0,a4,15464 <__svfscanf_r+0x203c>
   1476c:	480516e3          	bnez	a0,153f8 <__svfscanf_r+0x1fd0>
   14770:	000b1463          	bnez	s6,14778 <__svfscanf_r+0x1350>
   14774:	000a2023          	sw	zero,0(s4)
   14778:	012d0d33          	add	s10,s10,s2
   1477c:	fffb8b93          	addi	s7,s7,-1
   14780:	4a0b1ae3          	bnez	s6,15434 <__svfscanf_r+0x200c>
   14784:	fffff7b7          	lui	a5,0xfffff
   14788:	b0c78793          	addi	a5,a5,-1268 # ffffeb0c <__BSS_END__+0xfffccfb8>
   1478c:	008787b3          	add	a5,a5,s0
   14790:	0007a783          	lw	a5,0(a5)
   14794:	02078863          	beqz	a5,147c4 <__svfscanf_r+0x139c>
   14798:	fffff7b7          	lui	a5,0xfffff
   1479c:	af878793          	addi	a5,a5,-1288 # ffffeaf8 <__BSS_END__+0xfffccfa4>
   147a0:	008787b3          	add	a5,a5,s0
   147a4:	0007a783          	lw	a5,0(a5)
   147a8:	40fa0933          	sub	s2,s4,a5
   147ac:	fffff7b7          	lui	a5,0xfffff
   147b0:	afc78793          	addi	a5,a5,-1284 # ffffeafc <__BSS_END__+0xfffccfa8>
   147b4:	008787b3          	add	a5,a5,s0
   147b8:	0007a783          	lw	a5,0(a5)
   147bc:	40295713          	srai	a4,s2,0x2
   147c0:	4af776e3          	bgeu	a4,a5,1546c <__svfscanf_r+0x2044>
   147c4:	004a0a13          	addi	s4,s4,4
   147c8:	00000913          	li	s2,0
   147cc:	0044a703          	lw	a4,4(s1)
   147d0:	06e05ae3          	blez	a4,15044 <__svfscanf_r+0x1c1c>
   147d4:	f00b98e3          	bnez	s7,146e4 <__svfscanf_r+0x12bc>
   147d8:	fffff737          	lui	a4,0xfffff
   147dc:	af070713          	addi	a4,a4,-1296 # ffffeaf0 <__BSS_END__+0xfffccf9c>
   147e0:	00870733          	add	a4,a4,s0
   147e4:	00072a83          	lw	s5,0(a4)
   147e8:	00048793          	mv	a5,s1
   147ec:	000d8493          	mv	s1,s11
   147f0:	00078d93          	mv	s11,a5
   147f4:	fffff7b7          	lui	a5,0xfffff
   147f8:	b0c78793          	addi	a5,a5,-1268 # ffffeb0c <__BSS_END__+0xfffccfb8>
   147fc:	008787b3          	add	a5,a5,s0
   14800:	0007a783          	lw	a5,0(a5)
   14804:	02078a63          	beqz	a5,14838 <__svfscanf_r+0x1410>
   14808:	fffff7b7          	lui	a5,0xfffff
   1480c:	af878793          	addi	a5,a5,-1288 # ffffeaf8 <__BSS_END__+0xfffccfa4>
   14810:	008787b3          	add	a5,a5,s0
   14814:	fffff737          	lui	a4,0xfffff
   14818:	0007a783          	lw	a5,0(a5)
   1481c:	afc70713          	addi	a4,a4,-1284 # ffffeafc <__BSS_END__+0xfffccfa8>
   14820:	00870733          	add	a4,a4,s0
   14824:	00072703          	lw	a4,0(a4)
   14828:	40fa05b3          	sub	a1,s4,a5
   1482c:	4025d793          	srai	a5,a1,0x2
   14830:	00e7f463          	bgeu	a5,a4,14838 <__svfscanf_r+0x1410>
   14834:	1dc0106f          	j	15a10 <__svfscanf_r+0x25e8>
   14838:	fffff7b7          	lui	a5,0xfffff
   1483c:	b1478793          	addi	a5,a5,-1260 # ffffeb14 <__BSS_END__+0xfffccfc0>
   14840:	008787b3          	add	a5,a5,s0
   14844:	0007a783          	lw	a5,0(a5)
   14848:	fffff737          	lui	a4,0xfffff
   1484c:	001b3b13          	seqz	s6,s6
   14850:	b1470713          	addi	a4,a4,-1260 # ffffeb14 <__BSS_END__+0xfffccfc0>
   14854:	016787b3          	add	a5,a5,s6
   14858:	00870733          	add	a4,a4,s0
   1485c:	00f72023          	sw	a5,0(a4)
   14860:	fffff7b7          	lui	a5,0xfffff
   14864:	af478793          	addi	a5,a5,-1292 # ffffeaf4 <__BSS_END__+0xfffccfa0>
   14868:	008787b3          	add	a5,a5,s0
   1486c:	0007a783          	lw	a5,0(a5)
   14870:	fffff737          	lui	a4,0xfffff
   14874:	b0c70713          	addi	a4,a4,-1268 # ffffeb0c <__BSS_END__+0xfffccfb8>
   14878:	00870733          	add	a4,a4,s0
   1487c:	00f72023          	sw	a5,0(a4)
   14880:	cd1fe06f          	j	13550 <__svfscanf_r+0x128>
   14884:	fffff637          	lui	a2,0xfffff
   14888:	af860613          	addi	a2,a2,-1288 # ffffeaf8 <__BSS_END__+0xfffccfa4>
   1488c:	00001737          	lui	a4,0x1
   14890:	00860633          	add	a2,a2,s0
   14894:	fffb8793          	addi	a5,s7,-1
   14898:	36c70693          	addi	a3,a4,876 # 136c <register_fini-0xed08>
   1489c:	00062023          	sw	zero,0(a2)
   148a0:	00f6fc63          	bgeu	a3,a5,148b8 <__svfscanf_r+0x1490>
   148a4:	fffff7b7          	lui	a5,0xfffff
   148a8:	c9378a13          	addi	s4,a5,-877 # ffffec93 <__BSS_END__+0xfffcd13f>
   148ac:	014b87b3          	add	a5,s7,s4
   148b0:	00f62023          	sw	a5,0(a2)
   148b4:	36d70b93          	addi	s7,a4,877
   148b8:	fffff7b7          	lui	a5,0xfffff
   148bc:	b1878793          	addi	a5,a5,-1256 # ffffeb18 <__BSS_END__+0xfffccfc4>
   148c0:	008787b3          	add	a5,a5,s0
   148c4:	0007ac83          	lw	s9,0(a5)
   148c8:	fffff7b7          	lui	a5,0xfffff
   148cc:	47f78693          	addi	a3,a5,1151 # fffff47f <__BSS_END__+0xfffcd92b>
   148d0:	afc78793          	addi	a5,a5,-1284
   148d4:	008787b3          	add	a5,a5,s0
   148d8:	0097a023          	sw	s1,0(a5)
   148dc:	fffff7b7          	lui	a5,0xfffff
   148e0:	b0478793          	addi	a5,a5,-1276 # ffffeb04 <__BSS_END__+0xfffccfb0>
   148e4:	00000b13          	li	s6,0
   148e8:	008787b3          	add	a5,a5,s0
   148ec:	00001937          	lui	s2,0x1
   148f0:	000b0493          	mv	s1,s6
   148f4:	0007ab03          	lw	s6,0(a5)
   148f8:	d8090e13          	addi	t3,s2,-640 # d80 <register_fini-0xf2f4>
   148fc:	01cc6c33          	or	s8,s8,t3
   14900:	04d00713          	li	a4,77
   14904:	0001b617          	auipc	a2,0x1b
   14908:	cd060613          	addi	a2,a2,-816 # 2f5d4 <zeroes.4505+0x2e8>
   1490c:	0001ba17          	auipc	s4,0x1b
   14910:	e00a0a13          	addi	s4,s4,-512 # 2f70c <basefix.4556>
   14914:	80090913          	addi	s2,s2,-2048
   14918:	000da583          	lw	a1,0(s11)
   1491c:	0005c503          	lbu	a0,0(a1)
   14920:	fd550793          	addi	a5,a0,-43
   14924:	0ff7f793          	andi	a5,a5,255
   14928:	04f76c63          	bltu	a4,a5,14980 <__svfscanf_r+0x1558>
   1492c:	00279793          	slli	a5,a5,0x2
   14930:	00c787b3          	add	a5,a5,a2
   14934:	0007a783          	lw	a5,0(a5)
   14938:	00c787b3          	add	a5,a5,a2
   1493c:	00078067          	jr	a5
   14940:	600c7793          	andi	a5,s8,1536
   14944:	20000813          	li	a6,512
   14948:	03079c63          	bne	a5,a6,14980 <__svfscanf_r+0x1558>
   1494c:	dffc7c13          	andi	s8,s8,-513
   14950:	500c6c13          	ori	s8,s8,1280
   14954:	01000b13          	li	s6,16
   14958:	004da783          	lw	a5,4(s11)
   1495c:	00ac8023          	sb	a0,0(s9)
   14960:	001c8c93          	addi	s9,s9,1
   14964:	fff78793          	addi	a5,a5,-1
   14968:	00fda223          	sw	a5,4(s11)
   1496c:	1cf05263          	blez	a5,14b30 <__svfscanf_r+0x1708>
   14970:	00158593          	addi	a1,a1,1
   14974:	00bda023          	sw	a1,0(s11)
   14978:	fffb8b93          	addi	s7,s7,-1
   1497c:	f80b9ee3          	bnez	s7,14918 <__svfscanf_r+0x14f0>
   14980:	fffff7b7          	lui	a5,0xfffff
   14984:	b0478793          	addi	a5,a5,-1276 # ffffeb04 <__BSS_END__+0xfffccfb0>
   14988:	008787b3          	add	a5,a5,s0
   1498c:	0167a023          	sw	s6,0(a5)
   14990:	fffff7b7          	lui	a5,0xfffff
   14994:	afc78793          	addi	a5,a5,-1284 # ffffeafc <__BSS_END__+0xfffccfa8>
   14998:	008787b3          	add	a5,a5,s0
   1499c:	00048b13          	mv	s6,s1
   149a0:	0007a483          	lw	s1,0(a5)
   149a4:	100c7793          	andi	a5,s8,256
   149a8:	02078863          	beqz	a5,149d8 <__svfscanf_r+0x15b0>
   149ac:	fffff7b7          	lui	a5,0xfffff
   149b0:	b1878793          	addi	a5,a5,-1256 # ffffeb18 <__BSS_END__+0xfffccfc4>
   149b4:	008787b3          	add	a5,a5,s0
   149b8:	0007a783          	lw	a5,0(a5)
   149bc:	7d97e063          	bltu	a5,s9,1517c <__svfscanf_r+0x1d54>
   149c0:	fffff7b7          	lui	a5,0xfffff
   149c4:	b1878793          	addi	a5,a5,-1256 # ffffeb18 <__BSS_END__+0xfffccfc4>
   149c8:	008787b3          	add	a5,a5,s0
   149cc:	0007a783          	lw	a5,0(a5)
   149d0:	00fc9463          	bne	s9,a5,149d8 <__svfscanf_r+0x15b0>
   149d4:	c3dfe06f          	j	13610 <__svfscanf_r+0x1e8>
   149d8:	010c7793          	andi	a5,s8,16
   149dc:	0a079463          	bnez	a5,14a84 <__svfscanf_r+0x165c>
   149e0:	fffff7b7          	lui	a5,0xfffff
   149e4:	b0478793          	addi	a5,a5,-1276 # ffffeb04 <__BSS_END__+0xfffccfb0>
   149e8:	008787b3          	add	a5,a5,s0
   149ec:	0007a683          	lw	a3,0(a5)
   149f0:	fffff7b7          	lui	a5,0xfffff
   149f4:	b1878793          	addi	a5,a5,-1256 # ffffeb18 <__BSS_END__+0xfffccfc4>
   149f8:	008787b3          	add	a5,a5,s0
   149fc:	0007a583          	lw	a1,0(a5)
   14a00:	fffff7b7          	lui	a5,0xfffff
   14a04:	b1c78793          	addi	a5,a5,-1252 # ffffeb1c <__BSS_END__+0xfffccfc8>
   14a08:	008787b3          	add	a5,a5,s0
   14a0c:	0007a503          	lw	a0,0(a5)
   14a10:	fffff7b7          	lui	a5,0xfffff
   14a14:	b0078793          	addi	a5,a5,-1280 # ffffeb00 <__BSS_END__+0xfffccfac>
   14a18:	008787b3          	add	a5,a5,s0
   14a1c:	0007a783          	lw	a5,0(a5)
   14a20:	00000613          	li	a2,0
   14a24:	000c8023          	sb	zero,0(s9)
   14a28:	000780e7          	jalr	a5
   14a2c:	fffff737          	lui	a4,0xfffff
   14a30:	b0c70713          	addi	a4,a4,-1268 # ffffeb0c <__BSS_END__+0xfffccfb8>
   14a34:	00870733          	add	a4,a4,s0
   14a38:	00072703          	lw	a4,0(a4)
   14a3c:	020c7793          	andi	a5,s8,32
   14a40:	00470913          	addi	s2,a4,4
   14a44:	6a078e63          	beqz	a5,15100 <__svfscanf_r+0x1cd8>
   14a48:	00072783          	lw	a5,0(a4)
   14a4c:	00a7a023          	sw	a0,0(a5)
   14a50:	fffff7b7          	lui	a5,0xfffff
   14a54:	b1478793          	addi	a5,a5,-1260 # ffffeb14 <__BSS_END__+0xfffccfc0>
   14a58:	008787b3          	add	a5,a5,s0
   14a5c:	0007a783          	lw	a5,0(a5)
   14a60:	fffff737          	lui	a4,0xfffff
   14a64:	b1470713          	addi	a4,a4,-1260 # ffffeb14 <__BSS_END__+0xfffccfc0>
   14a68:	00178793          	addi	a5,a5,1
   14a6c:	00870733          	add	a4,a4,s0
   14a70:	00f72023          	sw	a5,0(a4)
   14a74:	fffff7b7          	lui	a5,0xfffff
   14a78:	b0c78793          	addi	a5,a5,-1268 # ffffeb0c <__BSS_END__+0xfffccfb8>
   14a7c:	008787b3          	add	a5,a5,s0
   14a80:	0127a023          	sw	s2,0(a5)
   14a84:	fffff7b7          	lui	a5,0xfffff
   14a88:	b1878793          	addi	a5,a5,-1256 # ffffeb18 <__BSS_END__+0xfffccfc4>
   14a8c:	008787b3          	add	a5,a5,s0
   14a90:	0007a783          	lw	a5,0(a5)
   14a94:	40fc8cb3          	sub	s9,s9,a5
   14a98:	016c8b33          	add	s6,s9,s6
   14a9c:	016d0d33          	add	s10,s10,s6
   14aa0:	ab1fe06f          	j	13550 <__svfscanf_r+0x128>
   14aa4:	00a00793          	li	a5,10
   14aa8:	ed67dce3          	bge	a5,s6,14980 <__svfscanf_r+0x1558>
   14aac:	00dc7c33          	and	s8,s8,a3
   14ab0:	ea9ff06f          	j	14958 <__svfscanf_r+0x1530>
   14ab4:	001b1b13          	slli	s6,s6,0x1
   14ab8:	016a0b33          	add	s6,s4,s6
   14abc:	000b1b03          	lh	s6,0(s6)
   14ac0:	00800793          	li	a5,8
   14ac4:	eb67dee3          	bge	a5,s6,14980 <__svfscanf_r+0x1558>
   14ac8:	00dc7c33          	and	s8,s8,a3
   14acc:	e8dff06f          	j	14958 <__svfscanf_r+0x1530>
   14ad0:	012c77b3          	and	a5,s8,s2
   14ad4:	e80782e3          	beqz	a5,14958 <__svfscanf_r+0x1530>
   14ad8:	000b1663          	bnez	s6,14ae4 <__svfscanf_r+0x16bc>
   14adc:	200c6c13          	ori	s8,s8,512
   14ae0:	00800b13          	li	s6,8
   14ae4:	400c7793          	andi	a5,s8,1024
   14ae8:	60079863          	bnez	a5,150f8 <__svfscanf_r+0x1cd0>
   14aec:	fffff7b7          	lui	a5,0xfffff
   14af0:	af878793          	addi	a5,a5,-1288 # ffffeaf8 <__BSS_END__+0xfffccfa4>
   14af4:	008787b3          	add	a5,a5,s0
   14af8:	0007a783          	lw	a5,0(a5)
   14afc:	c7fc7c13          	andi	s8,s8,-897
   14b00:	00078e63          	beqz	a5,14b1c <__svfscanf_r+0x16f4>
   14b04:	fffff537          	lui	a0,0xfffff
   14b08:	af850513          	addi	a0,a0,-1288 # ffffeaf8 <__BSS_END__+0xfffccfa4>
   14b0c:	fff78793          	addi	a5,a5,-1
   14b10:	00850533          	add	a0,a0,s0
   14b14:	00f52023          	sw	a5,0(a0)
   14b18:	001b8b93          	addi	s7,s7,1
   14b1c:	004da783          	lw	a5,4(s11)
   14b20:	00148493          	addi	s1,s1,1
   14b24:	fff78793          	addi	a5,a5,-1
   14b28:	00fda223          	sw	a5,4(s11)
   14b2c:	e4f042e3          	bgtz	a5,14970 <__svfscanf_r+0x1548>
   14b30:	fffff7b7          	lui	a5,0xfffff
   14b34:	b1c78793          	addi	a5,a5,-1252 # ffffeb1c <__BSS_END__+0xfffccfc8>
   14b38:	008787b3          	add	a5,a5,s0
   14b3c:	0007a503          	lw	a0,0(a5)
   14b40:	000d8593          	mv	a1,s11
   14b44:	63c070ef          	jal	ra,1c180 <__srefill_r>
   14b48:	fffff7b7          	lui	a5,0xfffff
   14b4c:	04d00713          	li	a4,77
   14b50:	0001b617          	auipc	a2,0x1b
   14b54:	a8460613          	addi	a2,a2,-1404 # 2f5d4 <zeroes.4505+0x2e8>
   14b58:	47f78693          	addi	a3,a5,1151 # fffff47f <__BSS_END__+0xfffcd92b>
   14b5c:	e0050ee3          	beqz	a0,14978 <__svfscanf_r+0x1550>
   14b60:	e21ff06f          	j	14980 <__svfscanf_r+0x1558>
   14b64:	080c7793          	andi	a5,s8,128
   14b68:	e0078ce3          	beqz	a5,14980 <__svfscanf_r+0x1558>
   14b6c:	f7fc7c13          	andi	s8,s8,-129
   14b70:	de9ff06f          	j	14958 <__svfscanf_r+0x1530>
   14b74:	001b1b13          	slli	s6,s6,0x1
   14b78:	016a0b33          	add	s6,s4,s6
   14b7c:	000b1b03          	lh	s6,0(s6)
   14b80:	00dc7c33          	and	s8,s8,a3
   14b84:	dd5ff06f          	j	14958 <__svfscanf_r+0x1530>
   14b88:	ffdc8793          	addi	a5,s9,-3
   14b8c:	0fd7f793          	andi	a5,a5,253
   14b90:	86079863          	bnez	a5,13c00 <__svfscanf_r+0x7d8>
   14b94:	b9cff06f          	j	13f30 <__svfscanf_r+0xb08>
   14b98:	00200793          	li	a5,2
   14b9c:	b8fb1263          	bne	s6,a5,13f20 <__svfscanf_r+0xaf8>
   14ba0:	00300b13          	li	s6,3
   14ba4:	830ff06f          	j	13bd4 <__svfscanf_r+0x7ac>
   14ba8:	fffff7b7          	lui	a5,0xfffff
   14bac:	afc78793          	addi	a5,a5,-1284 # ffffeafc <__BSS_END__+0xfffccfa8>
   14bb0:	008787b3          	add	a5,a5,s0
   14bb4:	0007a783          	lw	a5,0(a5)
   14bb8:	16079663          	bnez	a5,14d24 <__svfscanf_r+0x18fc>
   14bbc:	fffff7b7          	lui	a5,0xfffff
   14bc0:	b0c78793          	addi	a5,a5,-1268 # ffffeb0c <__BSS_END__+0xfffccfb8>
   14bc4:	008787b3          	add	a5,a5,s0
   14bc8:	0007a783          	lw	a5,0(a5)
   14bcc:	fffff6b7          	lui	a3,0xfffff
   14bd0:	b0c68693          	addi	a3,a3,-1268 # ffffeb0c <__BSS_END__+0xfffccfb8>
   14bd4:	00478713          	addi	a4,a5,4
   14bd8:	008686b3          	add	a3,a3,s0
   14bdc:	080c7e13          	andi	t3,s8,128
   14be0:	00e6a023          	sw	a4,0(a3)
   14be4:	0007ac83          	lw	s9,0(a5)
   14be8:	700e04e3          	beqz	t3,15af0 <__svfscanf_r+0x26c8>
   14bec:	000c9463          	bnez	s9,14bf4 <__svfscanf_r+0x17cc>
   14bf0:	a21fe06f          	j	13610 <__svfscanf_r+0x1e8>
   14bf4:	02000513          	li	a0,32
   14bf8:	35c050ef          	jal	ra,19f54 <malloc>
   14bfc:	00050b13          	mv	s6,a0
   14c00:	bc050263          	beqz	a0,13fc4 <__svfscanf_r+0xb9c>
   14c04:	fffff7b7          	lui	a5,0xfffff
   14c08:	b1078793          	addi	a5,a5,-1264 # ffffeb10 <__BSS_END__+0xfffccfbc>
   14c0c:	008787b3          	add	a5,a5,s0
   14c10:	0007aa03          	lw	s4,0(a5)
   14c14:	00aca023          	sw	a0,0(s9)
   14c18:	006a5683          	lhu	a3,6(s4)
   14c1c:	004a5783          	lhu	a5,4(s4)
   14c20:	000a2903          	lw	s2,0(s4)
   14c24:	04f6ec63          	bltu	a3,a5,14c7c <__svfscanf_r+0x1854>
   14c28:	00010737          	lui	a4,0x10
   14c2c:	ff670713          	addi	a4,a4,-10 # fff6 <register_fini-0x7e>
   14c30:	00f77463          	bgeu	a4,a5,14c38 <__svfscanf_r+0x1810>
   14c34:	1080106f          	j	15d3c <__svfscanf_r+0x2914>
   14c38:	fffff737          	lui	a4,0xfffff
   14c3c:	00878c13          	addi	s8,a5,8
   14c40:	afc70713          	addi	a4,a4,-1284 # ffffeafc <__BSS_END__+0xfffccfa8>
   14c44:	00870733          	add	a4,a4,s0
   14c48:	002c1593          	slli	a1,s8,0x2
   14c4c:	00090513          	mv	a0,s2
   14c50:	00d72023          	sw	a3,0(a4)
   14c54:	72d060ef          	jal	ra,1bb80 <realloc>
   14c58:	fffff7b7          	lui	a5,0xfffff
   14c5c:	afc78793          	addi	a5,a5,-1284 # ffffeafc <__BSS_END__+0xfffccfa8>
   14c60:	008787b3          	add	a5,a5,s0
   14c64:	0007a683          	lw	a3,0(a5)
   14c68:	00051463          	bnez	a0,14c70 <__svfscanf_r+0x1848>
   14c6c:	0d00106f          	j	15d3c <__svfscanf_r+0x2914>
   14c70:	00aa2023          	sw	a0,0(s4)
   14c74:	018a1223          	sh	s8,4(s4)
   14c78:	00050913          	mv	s2,a0
   14c7c:	00269793          	slli	a5,a3,0x2
   14c80:	00f90933          	add	s2,s2,a5
   14c84:	fffff7b7          	lui	a5,0xfffff
   14c88:	b1078793          	addi	a5,a5,-1264 # ffffeb10 <__BSS_END__+0xfffccfbc>
   14c8c:	008787b3          	add	a5,a5,s0
   14c90:	0007a783          	lw	a5,0(a5)
   14c94:	00168713          	addi	a4,a3,1
   14c98:	01992023          	sw	s9,0(s2)
   14c9c:	00e79323          	sh	a4,6(a5)
   14ca0:	02000c13          	li	s8,32
   14ca4:	000c8913          	mv	s2,s9
   14ca8:	000c0c93          	mv	s9,s8
   14cac:	000b0c13          	mv	s8,s6
   14cb0:	000da703          	lw	a4,0(s11)
   14cb4:	00074783          	lbu	a5,0(a4)
   14cb8:	00f987b3          	add	a5,s3,a5
   14cbc:	b907c783          	lbu	a5,-1136(a5)
   14cc0:	20078ee3          	beqz	a5,156dc <__svfscanf_r+0x22b4>
   14cc4:	004da783          	lw	a5,4(s11)
   14cc8:	00170693          	addi	a3,a4,1
   14ccc:	00dda023          	sw	a3,0(s11)
   14cd0:	fff78793          	addi	a5,a5,-1
   14cd4:	00fda223          	sw	a5,4(s11)
   14cd8:	00074783          	lbu	a5,0(a4)
   14cdc:	001b0a13          	addi	s4,s6,1
   14ce0:	00fb0023          	sb	a5,0(s6)
   14ce4:	00090663          	beqz	s2,14cf0 <__svfscanf_r+0x18c8>
   14ce8:	418a0b33          	sub	s6,s4,s8
   14cec:	759b7863          	bgeu	s6,s9,1543c <__svfscanf_r+0x2014>
   14cf0:	fffb8b93          	addi	s7,s7,-1
   14cf4:	240b80e3          	beqz	s7,15734 <__svfscanf_r+0x230c>
   14cf8:	004da783          	lw	a5,4(s11)
   14cfc:	30f05863          	blez	a5,1500c <__svfscanf_r+0x1be4>
   14d00:	000a0b13          	mv	s6,s4
   14d04:	fadff06f          	j	14cb0 <__svfscanf_r+0x1888>
   14d08:	fffff7b7          	lui	a5,0xfffff
   14d0c:	b1c78793          	addi	a5,a5,-1252 # ffffeb1c <__BSS_END__+0xfffccfc8>
   14d10:	008787b3          	add	a5,a5,s0
   14d14:	0007a503          	lw	a0,0(a5)
   14d18:	000d8593          	mv	a1,s11
   14d1c:	464070ef          	jal	ra,1c180 <__srefill_r>
   14d20:	5e051e63          	bnez	a0,1531c <__svfscanf_r+0x1ef4>
   14d24:	000da703          	lw	a4,0(s11)
   14d28:	00074783          	lbu	a5,0(a4)
   14d2c:	00f987b3          	add	a5,s3,a5
   14d30:	b907c783          	lbu	a5,-1136(a5)
   14d34:	660780e3          	beqz	a5,15b94 <__svfscanf_r+0x276c>
   14d38:	004da783          	lw	a5,4(s11)
   14d3c:	00170713          	addi	a4,a4,1
   14d40:	00190913          	addi	s2,s2,1
   14d44:	fff78793          	addi	a5,a5,-1
   14d48:	00fda223          	sw	a5,4(s11)
   14d4c:	00eda023          	sw	a4,0(s11)
   14d50:	5d2b8663          	beq	s7,s2,1531c <__svfscanf_r+0x1ef4>
   14d54:	fcf04ae3          	bgtz	a5,14d28 <__svfscanf_r+0x1900>
   14d58:	fb1ff06f          	j	14d08 <__svfscanf_r+0x18e0>
   14d5c:	3e0b1263          	bnez	s6,15140 <__svfscanf_r+0x1d18>
   14d60:	fffff7b7          	lui	a5,0xfffff
   14d64:	b0c78793          	addi	a5,a5,-1268 # ffffeb0c <__BSS_END__+0xfffccfb8>
   14d68:	008787b3          	add	a5,a5,s0
   14d6c:	0007a783          	lw	a5,0(a5)
   14d70:	fffff6b7          	lui	a3,0xfffff
   14d74:	b0c68693          	addi	a3,a3,-1268 # ffffeb0c <__BSS_END__+0xfffccfb8>
   14d78:	00478713          	addi	a4,a5,4
   14d7c:	008686b3          	add	a3,a3,s0
   14d80:	080c7c13          	andi	s8,s8,128
   14d84:	00e6a023          	sw	a4,0(a3)
   14d88:	0007ac83          	lw	s9,0(a5)
   14d8c:	360c0ce3          	beqz	s8,15904 <__svfscanf_r+0x24dc>
   14d90:	000c9463          	bnez	s9,14d98 <__svfscanf_r+0x1970>
   14d94:	87dfe06f          	j	13610 <__svfscanf_r+0x1e8>
   14d98:	02000513          	li	a0,32
   14d9c:	1b8050ef          	jal	ra,19f54 <malloc>
   14da0:	00050b13          	mv	s6,a0
   14da4:	a2050063          	beqz	a0,13fc4 <__svfscanf_r+0xb9c>
   14da8:	fffff7b7          	lui	a5,0xfffff
   14dac:	b1078793          	addi	a5,a5,-1264 # ffffeb10 <__BSS_END__+0xfffccfbc>
   14db0:	008787b3          	add	a5,a5,s0
   14db4:	0007a703          	lw	a4,0(a5)
   14db8:	00aca023          	sw	a0,0(s9)
   14dbc:	00675683          	lhu	a3,6(a4)
   14dc0:	00475783          	lhu	a5,4(a4)
   14dc4:	00072903          	lw	s2,0(a4)
   14dc8:	06f6e063          	bltu	a3,a5,14e28 <__svfscanf_r+0x1a00>
   14dcc:	00010737          	lui	a4,0x10
   14dd0:	ff670713          	addi	a4,a4,-10 # fff6 <register_fini-0x7e>
   14dd4:	76f764e3          	bltu	a4,a5,15d3c <__svfscanf_r+0x2914>
   14dd8:	fffff737          	lui	a4,0xfffff
   14ddc:	00878c13          	addi	s8,a5,8
   14de0:	afc70713          	addi	a4,a4,-1284 # ffffeafc <__BSS_END__+0xfffccfa8>
   14de4:	00870733          	add	a4,a4,s0
   14de8:	002c1593          	slli	a1,s8,0x2
   14dec:	00090513          	mv	a0,s2
   14df0:	00d72023          	sw	a3,0(a4)
   14df4:	58d060ef          	jal	ra,1bb80 <realloc>
   14df8:	fffff7b7          	lui	a5,0xfffff
   14dfc:	afc78793          	addi	a5,a5,-1284 # ffffeafc <__BSS_END__+0xfffccfa8>
   14e00:	008787b3          	add	a5,a5,s0
   14e04:	0007a683          	lw	a3,0(a5)
   14e08:	72050ae3          	beqz	a0,15d3c <__svfscanf_r+0x2914>
   14e0c:	fffff7b7          	lui	a5,0xfffff
   14e10:	b1078793          	addi	a5,a5,-1264 # ffffeb10 <__BSS_END__+0xfffccfbc>
   14e14:	008787b3          	add	a5,a5,s0
   14e18:	0007a703          	lw	a4,0(a5)
   14e1c:	00050913          	mv	s2,a0
   14e20:	00a72023          	sw	a0,0(a4)
   14e24:	01871223          	sh	s8,4(a4)
   14e28:	00269793          	slli	a5,a3,0x2
   14e2c:	00f90933          	add	s2,s2,a5
   14e30:	fffff7b7          	lui	a5,0xfffff
   14e34:	b1078793          	addi	a5,a5,-1264 # ffffeb10 <__BSS_END__+0xfffccfbc>
   14e38:	008787b3          	add	a5,a5,s0
   14e3c:	0007a783          	lw	a5,0(a5)
   14e40:	00168713          	addi	a4,a3,1
   14e44:	01992023          	sw	s9,0(s2)
   14e48:	00e79323          	sh	a4,6(a5)
   14e4c:	02000c13          	li	s8,32
   14e50:	000da703          	lw	a4,0(s11)
   14e54:	000b0913          	mv	s2,s6
   14e58:	00074783          	lbu	a5,0(a4)
   14e5c:	00fa07b3          	add	a5,s4,a5
   14e60:	0007c783          	lbu	a5,0(a5)
   14e64:	0087f793          	andi	a5,a5,8
   14e68:	04079e63          	bnez	a5,14ec4 <__svfscanf_r+0x1a9c>
   14e6c:	004da783          	lw	a5,4(s11)
   14e70:	00170693          	addi	a3,a4,1
   14e74:	00dda023          	sw	a3,0(s11)
   14e78:	fff78793          	addi	a5,a5,-1
   14e7c:	00fda223          	sw	a5,4(s11)
   14e80:	00074783          	lbu	a5,0(a4)
   14e84:	001b0713          	addi	a4,s6,1
   14e88:	00fb0023          	sb	a5,0(s6)
   14e8c:	000c8663          	beqz	s9,14e98 <__svfscanf_r+0x1a70>
   14e90:	41270b33          	sub	s6,a4,s2
   14e94:	3b8b72e3          	bgeu	s6,s8,15a38 <__svfscanf_r+0x2610>
   14e98:	fffb8b93          	addi	s7,s7,-1
   14e9c:	020b8ce3          	beqz	s7,156d4 <__svfscanf_r+0x22ac>
   14ea0:	004da783          	lw	a5,4(s11)
   14ea4:	7ef05a63          	blez	a5,15698 <__svfscanf_r+0x2270>
   14ea8:	00070b13          	mv	s6,a4
   14eac:	000da703          	lw	a4,0(s11)
   14eb0:	00074783          	lbu	a5,0(a4)
   14eb4:	00fa07b3          	add	a5,s4,a5
   14eb8:	0007c783          	lbu	a5,0(a5)
   14ebc:	0087f793          	andi	a5,a5,8
   14ec0:	fa0786e3          	beqz	a5,14e6c <__svfscanf_r+0x1a44>
   14ec4:	000b0023          	sb	zero,0(s6)
   14ec8:	412b0b33          	sub	s6,s6,s2
   14ecc:	000c8663          	beqz	s9,14ed8 <__svfscanf_r+0x1ab0>
   14ed0:	001b0593          	addi	a1,s6,1
   14ed4:	2985e8e3          	bltu	a1,s8,15964 <__svfscanf_r+0x253c>
   14ed8:	016d0d33          	add	s10,s10,s6
   14edc:	6880006f          	j	15564 <__svfscanf_r+0x213c>
   14ee0:	3e0b1263          	bnez	s6,152c4 <__svfscanf_r+0x1e9c>
   14ee4:	fffff7b7          	lui	a5,0xfffff
   14ee8:	b0c78793          	addi	a5,a5,-1268 # ffffeb0c <__BSS_END__+0xfffccfb8>
   14eec:	008787b3          	add	a5,a5,s0
   14ef0:	0007a783          	lw	a5,0(a5)
   14ef4:	080c7e13          	andi	t3,s8,128
   14ef8:	00478a13          	addi	s4,a5,4
   14efc:	0007ac83          	lw	s9,0(a5)
   14f00:	760e0063          	beqz	t3,15660 <__svfscanf_r+0x2238>
   14f04:	000c9463          	bnez	s9,14f0c <__svfscanf_r+0x1ae4>
   14f08:	f08fe06f          	j	13610 <__svfscanf_r+0x1e8>
   14f0c:	000b8513          	mv	a0,s7
   14f10:	044050ef          	jal	ra,19f54 <malloc>
   14f14:	00050c13          	mv	s8,a0
   14f18:	8a050663          	beqz	a0,13fc4 <__svfscanf_r+0xb9c>
   14f1c:	fffff7b7          	lui	a5,0xfffff
   14f20:	b1078793          	addi	a5,a5,-1264 # ffffeb10 <__BSS_END__+0xfffccfbc>
   14f24:	008787b3          	add	a5,a5,s0
   14f28:	0007a703          	lw	a4,0(a5)
   14f2c:	00aca023          	sw	a0,0(s9)
   14f30:	00675683          	lhu	a3,6(a4)
   14f34:	00475783          	lhu	a5,4(a4)
   14f38:	00072903          	lw	s2,0(a4)
   14f3c:	06f6e063          	bltu	a3,a5,14f9c <__svfscanf_r+0x1b74>
   14f40:	00010737          	lui	a4,0x10
   14f44:	ff670713          	addi	a4,a4,-10 # fff6 <register_fini-0x7e>
   14f48:	5ef76ae3          	bltu	a4,a5,15d3c <__svfscanf_r+0x2914>
   14f4c:	fffff737          	lui	a4,0xfffff
   14f50:	00878b13          	addi	s6,a5,8
   14f54:	b0c70713          	addi	a4,a4,-1268 # ffffeb0c <__BSS_END__+0xfffccfb8>
   14f58:	00870733          	add	a4,a4,s0
   14f5c:	002b1593          	slli	a1,s6,0x2
   14f60:	00090513          	mv	a0,s2
   14f64:	00d72023          	sw	a3,0(a4)
   14f68:	419060ef          	jal	ra,1bb80 <realloc>
   14f6c:	fffff7b7          	lui	a5,0xfffff
   14f70:	b0c78793          	addi	a5,a5,-1268 # ffffeb0c <__BSS_END__+0xfffccfb8>
   14f74:	008787b3          	add	a5,a5,s0
   14f78:	0007a683          	lw	a3,0(a5)
   14f7c:	5c0500e3          	beqz	a0,15d3c <__svfscanf_r+0x2914>
   14f80:	fffff7b7          	lui	a5,0xfffff
   14f84:	b1078793          	addi	a5,a5,-1264 # ffffeb10 <__BSS_END__+0xfffccfbc>
   14f88:	008787b3          	add	a5,a5,s0
   14f8c:	0007a703          	lw	a4,0(a5)
   14f90:	00050913          	mv	s2,a0
   14f94:	00a72023          	sw	a0,0(a4)
   14f98:	01671223          	sh	s6,4(a4)
   14f9c:	00269793          	slli	a5,a3,0x2
   14fa0:	00f907b3          	add	a5,s2,a5
   14fa4:	fffff737          	lui	a4,0xfffff
   14fa8:	0197a023          	sw	s9,0(a5)
   14fac:	b1070713          	addi	a4,a4,-1264 # ffffeb10 <__BSS_END__+0xfffccfbc>
   14fb0:	fffff7b7          	lui	a5,0xfffff
   14fb4:	00870733          	add	a4,a4,s0
   14fb8:	b1c78793          	addi	a5,a5,-1252 # ffffeb1c <__BSS_END__+0xfffccfc8>
   14fbc:	00072703          	lw	a4,0(a4)
   14fc0:	00168b13          	addi	s6,a3,1
   14fc4:	008787b3          	add	a5,a5,s0
   14fc8:	010b1b13          	slli	s6,s6,0x10
   14fcc:	0007a503          	lw	a0,0(a5)
   14fd0:	010b5b13          	srli	s6,s6,0x10
   14fd4:	01671323          	sh	s6,6(a4)
   14fd8:	000c0593          	mv	a1,s8
   14fdc:	000d8713          	mv	a4,s11
   14fe0:	000b8693          	mv	a3,s7
   14fe4:	00100613          	li	a2,1
   14fe8:	115010ef          	jal	ra,168fc <_fread_r>
   14fec:	00050c13          	mv	s8,a0
   14ff0:	680500e3          	beqz	a0,15e70 <__svfscanf_r+0x2a48>
   14ff4:	197564e3          	bltu	a0,s7,1597c <__svfscanf_r+0x2554>
   14ff8:	018d0d33          	add	s10,s10,s8
   14ffc:	d6dfe06f          	j	13d68 <__svfscanf_r+0x940>
   15000:	000b8913          	mv	s2,s7
   15004:	effa7a13          	andi	s4,s4,-257
   15008:	c05fe06f          	j	13c0c <__svfscanf_r+0x7e4>
   1500c:	fffff7b7          	lui	a5,0xfffff
   15010:	b1c78793          	addi	a5,a5,-1252 # ffffeb1c <__BSS_END__+0xfffccfc8>
   15014:	008787b3          	add	a5,a5,s0
   15018:	0007a503          	lw	a0,0(a5)
   1501c:	000d8593          	mv	a1,s11
   15020:	160070ef          	jal	ra,1c180 <__srefill_r>
   15024:	cc050ee3          	beqz	a0,14d00 <__svfscanf_r+0x18d8>
   15028:	00090793          	mv	a5,s2
   1502c:	000a0913          	mv	s2,s4
   15030:	000c0a13          	mv	s4,s8
   15034:	000c8c13          	mv	s8,s9
   15038:	00078c93          	mv	s9,a5
   1503c:	6b491863          	bne	s2,s4,156ec <__svfscanf_r+0x22c4>
   15040:	f61fe06f          	j	13fa0 <__svfscanf_r+0xb78>
   15044:	fffff7b7          	lui	a5,0xfffff
   15048:	b1c78793          	addi	a5,a5,-1252 # ffffeb1c <__BSS_END__+0xfffccfc8>
   1504c:	008787b3          	add	a5,a5,s0
   15050:	0007a503          	lw	a0,0(a5)
   15054:	00048593          	mv	a1,s1
   15058:	128070ef          	jal	ra,1c180 <__srefill_r>
   1505c:	f6050c63          	beqz	a0,147d4 <__svfscanf_r+0x13ac>
   15060:	fffff737          	lui	a4,0xfffff
   15064:	af070713          	addi	a4,a4,-1296 # ffffeaf0 <__BSS_END__+0xfffccf9c>
   15068:	00048793          	mv	a5,s1
   1506c:	00870733          	add	a4,a4,s0
   15070:	000d8493          	mv	s1,s11
   15074:	00072a83          	lw	s5,0(a4)
   15078:	00078d93          	mv	s11,a5
   1507c:	f6090c63          	beqz	s2,147f4 <__svfscanf_r+0x13cc>
   15080:	f21fe06f          	j	13fa0 <__svfscanf_r+0xb78>
   15084:	00048593          	mv	a1,s1
   15088:	000a8513          	mv	a0,s5
   1508c:	0f4070ef          	jal	ra,1c180 <__srefill_r>
   15090:	c2050c63          	beqz	a0,144c8 <__svfscanf_r+0x10a0>
   15094:	fffff7b7          	lui	a5,0xfffff
   15098:	b0c78793          	addi	a5,a5,-1268 # ffffeb0c <__BSS_END__+0xfffccfb8>
   1509c:	008787b3          	add	a5,a5,s0
   150a0:	000d8c93          	mv	s9,s11
   150a4:	00048d93          	mv	s11,s1
   150a8:	000c0493          	mv	s1,s8
   150ac:	0007ac03          	lw	s8,0(a5)
   150b0:	fffff7b7          	lui	a5,0xfffff
   150b4:	aec78793          	addi	a5,a5,-1300 # ffffeaec <__BSS_END__+0xfffccf98>
   150b8:	008787b3          	add	a5,a5,s0
   150bc:	0007aa83          	lw	s5,0(a5)
   150c0:	c20c8a63          	beqz	s9,144f4 <__svfscanf_r+0x10cc>
   150c4:	eddfe06f          	j	13fa0 <__svfscanf_r+0xb78>
   150c8:	b809a683          	lw	a3,-1152(s3)
   150cc:	00400713          	li	a4,4
   150d0:	b8e69663          	bne	a3,a4,1445c <__svfscanf_r+0x1034>
   150d4:	fffff7b7          	lui	a5,0xfffff
   150d8:	afc78793          	addi	a5,a5,-1284 # ffffeafc <__BSS_END__+0xfffccfa8>
   150dc:	008787b3          	add	a5,a5,s0
   150e0:	0007a783          	lw	a5,0(a5)
   150e4:	b8078863          	beqz	a5,14474 <__svfscanf_r+0x104c>
   150e8:	00000d93          	li	s11,0
   150ec:	bd4ff06f          	j	144c0 <__svfscanf_r+0x1098>
   150f0:	fff90913          	addi	s2,s2,-1
   150f4:	aedfe06f          	j	13be0 <__svfscanf_r+0x7b8>
   150f8:	a7fc7c13          	andi	s8,s8,-1409
   150fc:	85dff06f          	j	14958 <__svfscanf_r+0x1530>
   15100:	008c7793          	andi	a5,s8,8
   15104:	74078663          	beqz	a5,15850 <__svfscanf_r+0x2428>
   15108:	fffff7b7          	lui	a5,0xfffff
   1510c:	b0c78793          	addi	a5,a5,-1268 # ffffeb0c <__BSS_END__+0xfffccfb8>
   15110:	008787b3          	add	a5,a5,s0
   15114:	0007a783          	lw	a5,0(a5)
   15118:	0007a783          	lw	a5,0(a5)
   1511c:	00a78023          	sb	a0,0(a5)
   15120:	931ff06f          	j	14a50 <__svfscanf_r+0x1628>
   15124:	fffff7b7          	lui	a5,0xfffff
   15128:	b1c78793          	addi	a5,a5,-1252 # ffffeb1c <__BSS_END__+0xfffccfc8>
   1512c:	008787b3          	add	a5,a5,s0
   15130:	0007a503          	lw	a0,0(a5)
   15134:	000d8593          	mv	a1,s11
   15138:	048070ef          	jal	ra,1c180 <__srefill_r>
   1513c:	1e051063          	bnez	a0,1531c <__svfscanf_r+0x1ef4>
   15140:	000da703          	lw	a4,0(s11)
   15144:	00074783          	lbu	a5,0(a4)
   15148:	00fa07b3          	add	a5,s4,a5
   1514c:	0007c783          	lbu	a5,0(a5)
   15150:	0087f793          	andi	a5,a5,8
   15154:	1c079463          	bnez	a5,1531c <__svfscanf_r+0x1ef4>
   15158:	004da783          	lw	a5,4(s11)
   1515c:	00170713          	addi	a4,a4,1
   15160:	00190913          	addi	s2,s2,1
   15164:	fff78793          	addi	a5,a5,-1
   15168:	00fda223          	sw	a5,4(s11)
   1516c:	00eda023          	sw	a4,0(s11)
   15170:	1b2b8663          	beq	s7,s2,1531c <__svfscanf_r+0x1ef4>
   15174:	fcf048e3          	bgtz	a5,15144 <__svfscanf_r+0x1d1c>
   15178:	fadff06f          	j	15124 <__svfscanf_r+0x1cfc>
   1517c:	fffff7b7          	lui	a5,0xfffff
   15180:	b1c78793          	addi	a5,a5,-1252 # ffffeb1c <__BSS_END__+0xfffccfc8>
   15184:	008787b3          	add	a5,a5,s0
   15188:	fffcc583          	lbu	a1,-1(s9)
   1518c:	0007a503          	lw	a0,0(a5)
   15190:	000d8613          	mv	a2,s11
   15194:	fffc8c93          	addi	s9,s9,-1
   15198:	29d0c0ef          	jal	ra,21c34 <_ungetc_r>
   1519c:	825ff06f          	j	149c0 <__svfscanf_r+0x1598>
   151a0:	fffff7b7          	lui	a5,0xfffff
   151a4:	afc78793          	addi	a5,a5,-1284 # ffffeafc <__BSS_END__+0xfffccfa8>
   151a8:	008787b3          	add	a5,a5,s0
   151ac:	0007a783          	lw	a5,0(a5)
   151b0:	41278633          	sub	a2,a5,s2
   151b4:	01279463          	bne	a5,s2,151bc <__svfscanf_r+0x1d94>
   151b8:	b1dfe06f          	j	13cd4 <__svfscanf_r+0x8ac>
   151bc:	fb340793          	addi	a5,s0,-77
   151c0:	00fc6463          	bltu	s8,a5,151c8 <__svfscanf_r+0x1da0>
   151c4:	fb240c13          	addi	s8,s0,-78
   151c8:	0001a597          	auipc	a1,0x1a
   151cc:	56858593          	addi	a1,a1,1384 # 2f730 <basefix.4556+0x24>
   151d0:	000c0513          	mv	a0,s8
   151d4:	3f0070ef          	jal	ra,1c5c4 <sprintf>
   151d8:	fffff737          	lui	a4,0xfffff
   151dc:	b0c70713          	addi	a4,a4,-1268 # ffffeb0c <__BSS_END__+0xfffccfb8>
   151e0:	00870733          	add	a4,a4,s0
   151e4:	00072703          	lw	a4,0(a4)
   151e8:	002a7793          	andi	a5,s4,2
   151ec:	001a7913          	andi	s2,s4,1
   151f0:	00470a13          	addi	s4,a4,4
   151f4:	00078463          	beqz	a5,151fc <__svfscanf_r+0x1dd4>
   151f8:	b01fe06f          	j	13cf8 <__svfscanf_r+0x8d0>
   151fc:	fffff7b7          	lui	a5,0xfffff
   15200:	b1878793          	addi	a5,a5,-1256 # ffffeb18 <__BSS_END__+0xfffccfc4>
   15204:	008787b3          	add	a5,a5,s0
   15208:	0007a583          	lw	a1,0(a5)
   1520c:	fffff7b7          	lui	a5,0xfffff
   15210:	b1c78793          	addi	a5,a5,-1252 # ffffeb1c <__BSS_END__+0xfffccfc8>
   15214:	008787b3          	add	a5,a5,s0
   15218:	0007a503          	lw	a0,0(a5)
   1521c:	00000613          	li	a2,0
   15220:	559080ef          	jal	ra,1df78 <_strtod_r>
   15224:	00050b13          	mv	s6,a0
   15228:	00058b93          	mv	s7,a1
   1522c:	00090463          	beqz	s2,15234 <__svfscanf_r+0x1e0c>
   15230:	b1dfe06f          	j	13d4c <__svfscanf_r+0x924>
   15234:	fffff7b7          	lui	a5,0xfffff
   15238:	b0c78793          	addi	a5,a5,-1268 # ffffeb0c <__BSS_END__+0xfffccfb8>
   1523c:	008787b3          	add	a5,a5,s0
   15240:	0007a783          	lw	a5,0(a5)
   15244:	00050613          	mv	a2,a0
   15248:	00058693          	mv	a3,a1
   1524c:	0007a903          	lw	s2,0(a5)
   15250:	134160ef          	jal	ra,2b384 <__unorddf2>
